--- !tapi-tbd
tbd-version:     4
targets:         [ x86_64-macos, arm64-macos, arm64e-macos ]
install-name:    '@rpath/libgraphcompute-rt.dylib'
current-version: 1.5
compatibility-version: 1.5
exports:
  - targets:         [ x86_64-macos ]
    symbols:         [ __ZN2gc6Logger15logInCategoryVAENS0_9eSeverityEPKcS3_P13__va_list_tag ]
  - targets:         [ x86_64-macos, arm64-macos, arm64e-macos ]
    symbols:         [ __ZN2gc10CoreLogger18setMinimumSeverityENS_6Logger9eSeverityE, 
                       __ZN2gc10CoreLogger3logENS_6Logger9eSeverityEPKcz, __ZN2gc10CoreLogger8instanceEv, 
                       __ZN2gc10CoreLoggerC1Ev, __ZN2gc10CoreLoggerC2Ev, __ZN2gc10fromStringERKNSt3__112basic_stringIcNS0_11char_traitsIcEENS0_9allocatorIcEEEER17loopkit_rt_type_t, 
                       __ZN2gc10logicalAndENS_4ExprES0_, __ZN2gc10logicalNotENS_4ExprE, 
                       __ZN2gc10noOpKernelERKNSt3__112basic_stringIcNS0_11char_traitsIcEENS0_9allocatorIcEEEE, 
                       __ZN2gc10uniqueNameERKNSt3__112basic_stringIcNS0_11char_traitsIcEENS0_9allocatorIcEEEE, 
                       __ZN2gc11AOTRegistry16registerScheduleERKNS_8ScheduleE, __ZN2gc11AOTRegistry17registerFunctionsERKNSt3__13mapINS1_12basic_stringIcNS1_11char_traitsIcEENS1_9allocatorIcEEEENS1_8functionIFiPPvEEENS1_4lessIS8_EENS6_INS1_4pairIKS8_SD_EEEEEE, 
                       __ZN2gc11AOTRegistry5clearEv, __ZN2gc11AOTRegistry8functionERKNSt3__112basic_stringIcNS1_11char_traitsIcEENS1_9allocatorIcEEEE, 
                       __ZN2gc11AOTRegistry8instanceEv, __ZN2gc11AOTRegistry8scheduleEv, 
                       __ZN2gc11AOTRegistryD1Ev, __ZN2gc11AOTRegistryD2Ev, __ZN2gc11Environment18defaultSandboxPathEv, 
                       __ZN2gc11Environment19defaultMetalLibPathEv, __ZN2gc11Environment19defaultResourcePathEv, 
                       __ZN2gc11EnvironmentC1Ev, __ZN2gc11EnvironmentC2Ev, __ZN2gc11TypedIRStmtILNS_9eStmtTypeE0EE4makeERK17loopkit_rt_type_tRKNSt3__112basic_stringIcNS6_11char_traitsIcEENS6_9allocatorIcEEEERKNS_4ExprE, 
                       __ZN2gc11TypedIRStmtILNS_9eStmtTypeE0EE4makeERK17loopkit_rt_type_tRKNSt3__112basic_stringIcNS6_11char_traitsIcEENS6_9allocatorIcEEEERKNS_4ExprERK15halide_buffer_t, 
                       __ZN2gc11TypedIRStmtILNS_9eStmtTypeE0EEC1ERKNSt3__112basic_stringIcNS3_11char_traitsIcEENS3_9allocatorIcEEEE, 
                       __ZN2gc11TypedIRStmtILNS_9eStmtTypeE0EEC2ERKNSt3__112basic_stringIcNS3_11char_traitsIcEENS3_9allocatorIcEEEE, 
                       __ZN2gc11TypedIRStmtILNS_9eStmtTypeE1EE4makeERKNSt3__112basic_stringIcNS3_11char_traitsIcEENS3_9allocatorIcEEEERKNS_4ExprESE_, 
                       __ZN2gc11TypedIRStmtILNS_9eStmtTypeE1EEC1ERKNSt3__112basic_stringIcNS3_11char_traitsIcEENS3_9allocatorIcEEEERKNS_4ExprESE_, 
                       __ZN2gc11TypedIRStmtILNS_9eStmtTypeE1EEC2ERKNSt3__112basic_stringIcNS3_11char_traitsIcEENS3_9allocatorIcEEEERKNS_4ExprESE_, 
                       __ZN2gc11TypedIRStmtILNS_9eStmtTypeE2EE4makeERKNSt3__112basic_stringIcNS3_11char_traitsIcEENS3_9allocatorIcEEEERKNS3_6vectorINS_4ExprENS7_ISD_EEEERK17loopkit_rt_type_tRKNS_11eMemoryTypeESH_RKSD_, 
                       __ZN2gc11TypedIRStmtILNS_9eStmtTypeE2EEC1ERKNSt3__112basic_stringIcNS3_11char_traitsIcEENS3_9allocatorIcEEEERKNS3_6vectorINS_4ExprENS7_ISD_EEEERK17loopkit_rt_type_tRKNS_11eMemoryTypeESH_RKSD_, 
                       __ZN2gc11TypedIRStmtILNS_9eStmtTypeE2EEC2ERKNSt3__112basic_stringIcNS3_11char_traitsIcEENS3_9allocatorIcEEEERKNS3_6vectorINS_4ExprENS7_ISD_EEEERK17loopkit_rt_type_tRKNS_11eMemoryTypeESH_RKSD_, 
                       __ZN2gc11TypedIRStmtILNS_9eStmtTypeE3EE4makeERKNS_4ExprES5_NS_4StmtERKNSt3__112basic_stringIcNS7_11char_traitsIcEENS7_9allocatorIcEEEERKNS_8eForTypeE, 
                       __ZN2gc11TypedIRStmtILNS_9eStmtTypeE3EE4makeERKNS_4ExprES5_NSt3__18functionIFvS5_EEERKNS6_12basic_stringIcNS6_11char_traitsIcEENS6_9allocatorIcEEEERKNS_8eForTypeE, 
                       __ZN2gc11TypedIRStmtILNS_9eStmtTypeE3EEC1ERKNS_4ExprES5_NS_4StmtERKNSt3__112basic_stringIcNS7_11char_traitsIcEENS7_9allocatorIcEEEERKNS_8eForTypeE, 
                       __ZN2gc11TypedIRStmtILNS_9eStmtTypeE3EEC1ERKNS_4ExprES5_NSt3__18functionIFvS5_EEERKNS6_12basic_stringIcNS6_11char_traitsIcEENS6_9allocatorIcEEEERKNS_8eForTypeE, 
                       __ZN2gc11TypedIRStmtILNS_9eStmtTypeE3EEC2ERKNS_4ExprES5_NS_4StmtERKNSt3__112basic_stringIcNS7_11char_traitsIcEENS7_9allocatorIcEEEERKNS_8eForTypeE, 
                       __ZN2gc11TypedIRStmtILNS_9eStmtTypeE3EEC2ERKNS_4ExprES5_NSt3__18functionIFvS5_EEERKNS6_12basic_stringIcNS6_11char_traitsIcEENS6_9allocatorIcEEEERKNS_8eForTypeE, 
                       __ZN2gc11TypedIRStmtILNS_9eStmtTypeE4EE4makeERKNS_4ExprENS_4StmtE, 
                       __ZN2gc11TypedIRStmtILNS_9eStmtTypeE4EE4makeERKNS_4ExprENSt3__18functionIFvvEEE, 
                       __ZN2gc11TypedIRStmtILNS_9eStmtTypeE4EEC1ERKNS_4ExprENS_4StmtE, 
                       __ZN2gc11TypedIRStmtILNS_9eStmtTypeE4EEC1ERKNS_4ExprENSt3__18functionIFvvEEE, 
                       __ZN2gc11TypedIRStmtILNS_9eStmtTypeE4EEC2ERKNS_4ExprENS_4StmtE, 
                       __ZN2gc11TypedIRStmtILNS_9eStmtTypeE4EEC2ERKNS_4ExprENSt3__18functionIFvvEEE, 
                       __ZN2gc11TypedIRStmtILNS_9eStmtTypeE5EE4makeERKNS_4ExprENS_4StmtES6_, 
                       __ZN2gc11TypedIRStmtILNS_9eStmtTypeE5EE4makeERKNS_4ExprENSt3__18functionIFvvEEES9_, 
                       __ZN2gc11TypedIRStmtILNS_9eStmtTypeE5EEC1ERKNS_4ExprENS_4StmtES6_, 
                       __ZN2gc11TypedIRStmtILNS_9eStmtTypeE5EEC1ERKNS_4ExprENSt3__18functionIFvvEEES9_, 
                       __ZN2gc11TypedIRStmtILNS_9eStmtTypeE5EEC2ERKNS_4ExprENS_4StmtES6_, 
                       __ZN2gc11TypedIRStmtILNS_9eStmtTypeE5EEC2ERKNS_4ExprENSt3__18functionIFvvEEES9_, 
                       __ZN2gc11TypedIRStmtILNS_9eStmtTypeE6EE4makeERKNSt3__16vectorINS_4ExprENS3_9allocatorIS5_EEEE, 
                       __ZN2gc11TypedIRStmtILNS_9eStmtTypeE6EEC1ERKNSt3__16vectorINS_4ExprENS3_9allocatorIS5_EEEE, 
                       __ZN2gc11TypedIRStmtILNS_9eStmtTypeE6EEC2ERKNSt3__16vectorINS_4ExprENS3_9allocatorIS5_EEEE, 
                       __ZN2gc11TypedIRStmtILNS_9eStmtTypeE7EE4makeERKNS_4ExprERKNSt3__16vectorIS3_NS6_9allocatorIS3_EEEE, 
                       __ZN2gc11TypedIRStmtILNS_9eStmtTypeE7EEC1ERKNS_4ExprERKNSt3__16vectorIS3_NS6_9allocatorIS3_EEEE, 
                       __ZN2gc11TypedIRStmtILNS_9eStmtTypeE7EEC2ERKNS_4ExprERKNSt3__16vectorIS3_NS6_9allocatorIS3_EEEE, 
                       __ZN2gc11TypedIRStmtILNS_9eStmtTypeE8EE4makeENSt3__110shared_ptrINS_16ExternalFunctionEEERKNS3_6vectorINS_4ExprENS3_9allocatorIS8_EEEE, 
                       __ZN2gc11TypedIRStmtILNS_9eStmtTypeE8EEC1ENSt3__110shared_ptrINS_16ExternalFunctionEEERKNS3_6vectorINS_4ExprENS3_9allocatorIS8_EEEE, 
                       __ZN2gc11TypedIRStmtILNS_9eStmtTypeE8EEC2ENSt3__110shared_ptrINS_16ExternalFunctionEEERKNS3_6vectorINS_4ExprENS3_9allocatorIS8_EEEE, 
                       __ZN2gc11TypedObjectILNS_11eObjectTypeE1EE15generateOutputsENSt3__16vectorINS_15eLibraryOutputsENS3_9allocatorIS5_EEEENS3_12basic_stringIcNS3_11char_traitsIcEENS6_IcEEEE, 
                       __ZN2gc11TypedObjectILNS_11eObjectTypeE1EE6createERKNSt3__112basic_stringIcNS3_11char_traitsIcEENS3_9allocatorIcEEEERKNS3_8functionIFiPPvEEERKNS_8ScheduleE, 
                       __ZN2gc11TypedObjectILNS_11eObjectTypeE1EEC1ERKNSt3__112basic_stringIcNS3_11char_traitsIcEENS3_9allocatorIcEEEERKNS3_8functionIFiPPvEEERKNS_8ScheduleE, 
                       __ZN2gc11TypedObjectILNS_11eObjectTypeE1EEC2ERKNSt3__112basic_stringIcNS3_11char_traitsIcEENS3_9allocatorIcEEEERKNS3_8functionIFiPPvEEERKNS_8ScheduleE, 
                       __ZN2gc11constExtentEj, __ZN2gc11deepCompareERKNS_4ExprES2_, 
                       __ZN2gc12BufferHandle10identifierEv, __ZN2gc12BufferHandleC1ERKNS_5ShapeERK17loopkit_rt_type_tRKNSt3__112basic_stringIcNS7_11char_traitsIcEENS7_9allocatorIcEEEERKNS_4ExprEPK15halide_buffer_t, 
                       __ZN2gc12BufferHandleC2ERKNS_5ShapeERK17loopkit_rt_type_tRKNSt3__112basic_stringIcNS7_11char_traitsIcEENS7_9allocatorIcEEEERKNS_4ExprEPK15halide_buffer_t, 
                       __ZN2gc12ComputeGraph3endEv, __ZN2gc12ComputeGraph4Node3endEv, 
                       __ZN2gc12ComputeGraph4Node4findERKNSt3__112basic_stringIcNS2_11char_traitsIcEENS2_9allocatorIcEEEE, 
                       __ZN2gc12ComputeGraph4Node5beginEv, __ZN2gc12ComputeGraph4Node6createENSt3__110shared_ptrINS_6KernelEEE, 
                       __ZN2gc12ComputeGraph4findERKNSt3__112basic_stringIcNS1_11char_traitsIcEENS1_9allocatorIcEEEE, 
                       __ZN2gc12ComputeGraph4rootEv, __ZN2gc12ComputeGraph5beginEv, 
                       __ZN2gc12ComputeGraph6insertENSt3__110shared_ptrINS_6KernelEEE, 
                       __ZN2gc12ComputeGraph7compileERNSt3__110shared_ptrINS_7LibraryEEE, 
                       __ZN2gc12ComputeGraph7compileEv, __ZN2gc12ComputeGraph7setNameERKNSt3__112basic_stringIcNS1_11char_traitsIcEENS1_9allocatorIcEEEE, 
                       __ZN2gc12ComputeGraph8consumesENSt3__110shared_ptrINS_6KernelEEE, 
                       __ZN2gc12ComputeGraph8consumesENSt3__110shared_ptrINS_6KernelEEES4_, 
                       __ZN2gc12ComputeGraph8consumesERKNSt3__112basic_stringIcNS1_11char_traitsIcEENS1_9allocatorIcEEEENS1_10shared_ptrINS_6KernelEEE, 
                       __ZN2gc12ComputeGraph8scheduleEv, __ZN2gc12ComputeGraphC1ENSt3__110shared_ptrINS_6KernelEEERKNS_8ScheduleE, 
                       __ZN2gc12ComputeGraphC1ERKNSt3__112basic_stringIcNS1_11char_traitsIcEENS1_9allocatorIcEEEENS1_10shared_ptrINS_6KernelEEERKNS_8ScheduleE, 
                       __ZN2gc12ComputeGraphC1ERKNSt3__112basic_stringIcNS1_11char_traitsIcEENS1_9allocatorIcEEEERKNS_8ScheduleE, 
                       __ZN2gc12ComputeGraphC2ENSt3__110shared_ptrINS_6KernelEEERKNS_8ScheduleE, 
                       __ZN2gc12ComputeGraphC2ERKNSt3__112basic_stringIcNS1_11char_traitsIcEENS1_9allocatorIcEEEENS1_10shared_ptrINS_6KernelEEERKNS_8ScheduleE, 
                       __ZN2gc12ComputeGraphC2ERKNSt3__112basic_stringIcNS1_11char_traitsIcEENS1_9allocatorIcEEEERKNS_8ScheduleE, 
                       __ZN2gc12makeConstantE17loopkit_rt_type_ta, __ZN2gc12makeConstantE17loopkit_rt_type_tb, 
                       __ZN2gc12makeConstantE17loopkit_rt_type_td, __ZN2gc12makeConstantE17loopkit_rt_type_tf, 
                       __ZN2gc12makeConstantE17loopkit_rt_type_th, __ZN2gc12makeConstantE17loopkit_rt_type_ti, 
                       __ZN2gc12makeConstantE17loopkit_rt_type_tj, __ZN2gc12makeConstantE17loopkit_rt_type_ts, 
                       __ZN2gc12makeConstantE17loopkit_rt_type_tt, __ZN2gc12makeConstantE17loopkit_rt_type_tx, 
                       __ZN2gc12makeConstantE17loopkit_rt_type_ty, __ZN2gc12makeVariableE17loopkit_rt_type_tRKNSt3__112basic_stringIcNS1_11char_traitsIcEENS1_9allocatorIcEEEE, 
                       __ZN2gc13BufferDeleterC1Em, __ZN2gc13BufferDeleterC2Em, __ZN2gc13loadSchedulesERKNSt3__14__fs10filesystem4pathERNS_8ScheduleE, 
                       __ZN2gc13saveSchedulesERKNSt3__14__fs10filesystem4pathERKNS_8ScheduleE, 
                       __ZN2gc14EqualInvariant6createENSt3__110shared_ptrINS_6BufferEEE, 
                       __ZN2gc14EqualInvariantC1ENSt3__110shared_ptrINS_6BufferEEE, 
                       __ZN2gc14EqualInvariantC2ENSt3__110shared_ptrINS_6BufferEEE, 
                       __ZN2gc14SIMDGroupBlock6createENSt3__110shared_ptrINS_6BufferEEEjj, 
                       __ZN2gc14SIMDGroupBlockC1ENSt3__16vectorINS1_10shared_ptrINS_6BufferEEENS1_9allocatorIS5_EEEEjj, 
                       __ZN2gc14SIMDGroupBlockC2ENSt3__16vectorINS1_10shared_ptrINS_6BufferEEENS1_9allocatorIS5_EEEEjj, 
                       __ZN2gc14TileDimensions10reallocateEv, __ZN2gc14TileDimensions15setBlockExtentsERKNS_12BlockExtentsE, 
                       __ZN2gc14TileDimensions15setBlockExtentsEj, __ZN2gc14TileDimensions16setThreadExtentsERKNS_12BlockExtentsE, 
                       __ZN2gc14TileDimensions16setThreadExtentsEj, __ZN2gc14TileDimensions17setBlockInvariantENSt3__110shared_ptrINS_17BindableInvariantEEE, 
                       __ZN2gc14TileDimensions18setThreadInvariantENSt3__110shared_ptrINS_17BindableInvariantEEE, 
                       __ZN2gc14TileDimensions19checkBlockInvariantENS_4util10TaggedBoolINS_24RuntimeInvariantCheckTagEEE, 
                       __ZN2gc14TileDimensions20checkThreadInvariantENS_4util10TaggedBoolINS_24RuntimeInvariantCheckTagEEE, 
                       __ZN2gc14TileDimensions6bufferEv, __ZN2gc14TileDimensions9setDeviceENS_13eTargetDeviceE, 
                       __ZN2gc14TileDimensions9setTraitsERKNS_8ScheduleE, __ZN2gc14TileDimensionsC1ERKNSt3__110shared_ptrINS_5RangeEEE, 
                       __ZN2gc14TileDimensionsC2ERKNSt3__110shared_ptrINS_5RangeEEE, 
                       __ZN2gc14scheduleTargetERKNS_8ScheduleERNS_6TargetE, __ZN2gc15ScalarInvariantC1E17loopkit_rt_type_tNSt3__18functionIFdvEEENS2_6vectorINS2_10shared_ptrINS_6BufferEEENS2_9allocatorIS9_EEEE, 
                       __ZN2gc15ScalarInvariantC2E17loopkit_rt_type_tNSt3__18functionIFdvEEENS2_6vectorINS2_10shared_ptrINS_6BufferEEENS2_9allocatorIS9_EEEE, 
                       __ZN2gc15StreamIndentBuf8overflowEi, __ZN2gc15StreamIndentBufD0Ev, 
                       __ZN2gc15StreamIndentBufD1Ev, __ZN2gc15StreamIndentBufD2Ev, 
                       __ZN2gc15defaultScheduleEv, __ZN2gc16BufferHandleView10identifierEv, 
                       __ZN2gc16BufferHandleView4makeENSt3__110shared_ptrINS_12BufferHandleEEERKNS_5ShapeERKNS_4ExprE, 
                       __ZN2gc16BufferHandleViewC1ENSt3__110shared_ptrINS_12BufferHandleEEERKNS_5ShapeERKNS_4ExprE, 
                       __ZN2gc16BufferHandleViewC2ENSt3__110shared_ptrINS_12BufferHandleEEERKNS_5ShapeERKNS_4ExprE, 
                       __ZN2gc16BufferParameters10invariantsEv, __ZN2gc16BufferParameters10scalarRowsENSt3__110shared_ptrINS_6BufferEEE, 
                       __ZN2gc16BufferParameters11equalBlocksENSt3__110shared_ptrINS_6BufferEEE, 
                       __ZN2gc16BufferParameters11equalBlocksENSt3__16vectorINS1_10shared_ptrINS_6BufferEEENS1_9allocatorIS5_EEEE, 
                       __ZN2gc16BufferParameters11exactBlocksERKNS_12BlockExtentsE, 
                       __ZN2gc16BufferParameters12addInvariantENSt3__110shared_ptrINS_17BindableInvariantEEE, 
                       __ZN2gc16BufferParameters12bufferHandleEv, __ZN2gc16BufferParameters12equalExtentsENSt3__110shared_ptrINS_6BufferEEEj, 
                       __ZN2gc16BufferParameters13equalElementsENSt3__110shared_ptrINS_6BufferEEE, 
                       __ZN2gc16BufferParameters13equalElementsENSt3__16vectorINS1_10shared_ptrINS_6BufferEEENS1_9allocatorIS5_EEEE, 
                       __ZN2gc16BufferParameters13exactElementsERKNS_14ElementExtentsE, 
                       __ZN2gc16BufferParameters13scalarColumnsENSt3__110shared_ptrINS_6BufferEEE, 
                       __ZN2gc16BufferParameters15appendArgumentsERNSt3__16vectorIPvNS1_9allocatorIS3_EEEE, 
                       __ZN2gc16BufferParameters15checkInvariantsENS_4util10TaggedBoolINS_14ResetBufferTagEEENS2_INS_24RuntimeInvariantCheckTagEEE, 
                       __ZN2gc16BufferParameters16dimensionsHandleEv, __ZN2gc16BufferParameters16functionOfBlocksENSt3__110shared_ptrINS_6BufferEEENS1_8functionIFNS_12BlockExtentsERKS6_EEE, 
                       __ZN2gc16BufferParameters16makeBufferHandleENSt3__110shared_ptrINS_6BufferEEE, 
                       __ZN2gc16BufferParameters20makeDimensionsHandleENSt3__110shared_ptrINS_6BufferEEE, 
                       __ZN2gc16BufferParameters5equalENSt3__110shared_ptrINS_6BufferEEE, 
                       __ZN2gc16BufferParameters9equalTypeENSt3__110shared_ptrINS_6BufferEEE, 
                       __ZN2gc16BufferParameters9equalTypeENSt3__16vectorINS1_10shared_ptrINS_6BufferEEENS1_9allocatorIS5_EEEE, 
                       __ZN2gc16BufferParameters9exactTypeE17loopkit_rt_type_t, __ZN2gc16BufferParameters9setBufferENSt3__18weak_ptrINS_6BufferEEE, 
                       __ZN2gc16BufferParametersC1ENS_3ArgE, __ZN2gc16BufferParametersC1ENSt3__110shared_ptrINS_6BufferEEE, 
                       __ZN2gc16BufferParametersC2ENS_3ArgE, __ZN2gc16BufferParametersC2ENSt3__110shared_ptrINS_6BufferEEE, 
                       __ZN2gc16ExternalFunctionC1ERKNSt3__112basic_stringIcNS1_11char_traitsIcEENS1_9allocatorIcEEEES9_17loopkit_rt_type_tRKNS1_6vectorINS0_11eMutabilityENS5_ISC_EEEENS_13eTargetDeviceE, 
                       __ZN2gc16ExternalFunctionC2ERKNSt3__112basic_stringIcNS1_11char_traitsIcEENS1_9allocatorIcEEEES9_17loopkit_rt_type_tRKNS1_6vectorINS0_11eMutabilityENS5_ISC_EEEENS_13eTargetDeviceE, 
                       __ZN2gc16GeneratorFactory10addFactoryERS0_, __ZN2gc16GeneratorFactory12loadScheduleERKNSt3__14__fs10filesystem4pathE, 
                       __ZN2gc16GeneratorFactory13clearCountersEv, __ZN2gc16GeneratorFactory15allocateFactoryEv, 
                       __ZN2gc16GeneratorFactory15defaultScheduleEv, __ZN2gc16GeneratorFactory15generateOutputsENSt3__16vectorINS_15eLibraryOutputsENS1_9allocatorIS3_EEEENS1_12basic_stringIcNS1_11char_traitsIcEENS4_IcEEEE, 
                       __ZN2gc16GeneratorFactory15pruneGeneratorsEv, __ZN2gc16GeneratorFactory17deallocateFactoryEv, 
                       __ZN2gc16GeneratorFactory8scheduleERKNS_8ScheduleE, __ZN2gc16GeneratorFactory8scheduleERKNSt3__14__fs10filesystem4pathE, 
                       __ZN2gc16GeneratorFactoryD0Ev, __ZN2gc16GeneratorFactoryD1Ev, 
                       __ZN2gc16GeneratorFactoryD2Ev, __ZN2gc16GeneratorManager15defaultScheduleEv, 
                       __ZN2gc16GeneratorManager3endEv, __ZN2gc16GeneratorManager4findERKNSt3__112basic_stringIcNS1_11char_traitsIcEENS1_9allocatorIcEEEE, 
                       __ZN2gc16GeneratorManager5beginEv, __ZN2gc16GeneratorManager5clearEv, 
                       __ZN2gc16GeneratorManager6removeERKNSt3__112basic_stringIcNS1_11char_traitsIcEENS1_9allocatorIcEEEE, 
                       __ZN2gc16GeneratorManager8instanceEv, __ZN2gc16GeneratorManager8scheduleERKNSt3__112basic_stringIcNS1_11char_traitsIcEENS1_9allocatorIcEEEE, 
                       __ZN2gc16GeneratorManager8scheduleERKNSt3__112basic_stringIcNS1_11char_traitsIcEENS1_9allocatorIcEEEENS_8ScheduleE, 
                       __ZN2gc16GeneratorManagerC1Ev, __ZN2gc16GeneratorManagerC2Ev, 
                       __ZN2gc16targetToScheduleERKNS_6TargetERNS_8ScheduleE, __ZN2gc17BindableInvariantC2ENS_22eBindableInvariantMaskENSt3__16vectorINS2_10shared_ptrINS_6BufferEEENS2_9allocatorIS6_EEEE, 
                       __ZN2gc17getTargetPlatformEv, __ZN2gc17hostPageSizeBytesEv, 
                       __ZN2gc18BindableInvariants3addENSt3__110shared_ptrINS_17BindableInvariantEEE, 
                       __ZN2gc18BindableInvariants3endEv, __ZN2gc18BindableInvariants5beginEv, 
                       __ZN2gc18BindableInvariants5clearEv, __ZN2gc18BindableInvariantsC1Ev, 
                       __ZN2gc18BindableInvariantsC2Ev, __ZN2gc18EqualTypeInvariant6createENSt3__16vectorINS1_10shared_ptrINS_6BufferEEENS1_9allocatorIS5_EEEE, 
                       __ZN2gc18EqualTypeInvariantC1ENSt3__16vectorINS1_10shared_ptrINS_6BufferEEENS1_9allocatorIS5_EEEE, 
                       __ZN2gc18EqualTypeInvariantC2ENSt3__16vectorINS1_10shared_ptrINS_6BufferEEENS1_9allocatorIS5_EEEE, 
                       __ZN2gc18ExactTypeInvariant6createE17loopkit_rt_type_t, __ZN2gc18ExactTypeInvariantC1E17loopkit_rt_type_t, 
                       __ZN2gc18ExactTypeInvariantC2E17loopkit_rt_type_t, __ZN2gc18IncreasingRangeMap6createENSt3__110shared_ptrINS_6BufferEEERKNS1_12basic_stringIcNS1_11char_traitsIcEENS1_9allocatorIcEEEE, 
                       __ZN2gc18IncreasingRangeMap7reorderEv, __ZN2gc18IncreasingRangeMapC1ENSt3__110shared_ptrINS_6BufferEEERKNS1_12basic_stringIcNS1_11char_traitsIcEENS1_9allocatorIcEEEE, 
                       __ZN2gc18IncreasingRangeMapC2ENSt3__110shared_ptrINS_6BufferEEERKNS1_12basic_stringIcNS1_11char_traitsIcEENS1_9allocatorIcEEEE, 
                       __ZN2gc18MatrixProductBlock6createENSt3__110shared_ptrINS_6BufferEEES4_bbj, 
                       __ZN2gc18MatrixProductBlockC1ENSt3__110shared_ptrINS_6BufferEEES4_bbj, 
                       __ZN2gc18MatrixProductBlockC2ENSt3__110shared_ptrINS_6BufferEEES4_bbj, 
                       __ZN2gc18PerformanceCounter4stopEv, __ZN2gc18PerformanceCounter5clearEv, 
                       __ZN2gc18PerformanceCounter5startEv, __ZN2gc18createComputeGraphENSt3__110shared_ptrINS_6KernelEEERKNS_8ScheduleE, 
                       __ZN2gc18createComputeGraphERKNSt3__112basic_stringIcNS0_11char_traitsIcEENS0_9allocatorIcEEEENS0_10shared_ptrINS_6KernelEEERKNS_8ScheduleE, 
                       __ZN2gc19BufferParametersSet15checkInvariantsENS_4util10TaggedBoolINS_14ResetBufferTagEEENS2_INS_24RuntimeInvariantCheckTagEEE, 
                       __ZN2gc19BufferParametersSet20sortBufferParametersEv, __ZN2gc19BufferParametersSet3endEv, 
                       __ZN2gc19BufferParametersSet4findERKNSt3__112basic_stringIcNS1_11char_traitsIcEENS1_9allocatorIcEEEE, 
                       __ZN2gc19BufferParametersSet5beginEv, __ZN2gc19BufferParametersSet7buffersEv, 
                       __ZN2gc19BufferParametersSet9argumentsEv, __ZN2gc19BufferParametersSet9push_backERNS_16BufferParametersE, 
                       __ZN2gc19BufferParametersSetixEj, __ZN2gc19EqualBlockInvariant6createENSt3__110shared_ptrINS_6BufferEEE, 
                       __ZN2gc19EqualBlockInvariant6createENSt3__16vectorINS1_10shared_ptrINS_6BufferEEENS1_9allocatorIS5_EEEE, 
                       __ZN2gc19EqualBlockInvariantC1ENSt3__16vectorINS1_10shared_ptrINS_6BufferEEENS1_9allocatorIS5_EEEE, 
                       __ZN2gc19EqualBlockInvariantC2ENSt3__16vectorINS1_10shared_ptrINS_6BufferEEENS1_9allocatorIS5_EEEE, 
                       __ZN2gc19ExactBlockInvariant6createENS_12BlockExtentsE, __ZN2gc19ExactBlockInvariantC1ENS_12BlockExtentsE, 
                       __ZN2gc19ExactBlockInvariantC2ENS_12BlockExtentsE, __ZN2gc19ScalarRowsInvariant6createENSt3__110shared_ptrINS_6BufferEEEj, 
                       __ZN2gc19threadToParallelismEj, __ZN2gc20MatrixProductElement6createENSt3__110shared_ptrINS_6BufferEEES4_bb, 
                       __ZN2gc20MatrixProductElementC1ENSt3__110shared_ptrINS_6BufferEEES4_bb, 
                       __ZN2gc20MatrixProductElementC2ENSt3__110shared_ptrINS_6BufferEEES4_bb, 
                       __ZN2gc20parallelismToThreadsENS_12eParallelismE, __ZN2gc21EqualExtentsInvariant6createENSt3__110shared_ptrINS_6BufferEEEj, 
                       __ZN2gc21EqualExtentsInvariant6createENSt3__16vectorINS1_10shared_ptrINS_6BufferEEENS1_9allocatorIS5_EEEEj, 
                       __ZN2gc21EqualExtentsInvariantC1ENSt3__16vectorINS1_10shared_ptrINS_6BufferEEENS1_9allocatorIS5_EEEEj, 
                       __ZN2gc21EqualExtentsInvariantC2ENSt3__16vectorINS1_10shared_ptrINS_6BufferEEENS1_9allocatorIS5_EEEEj, 
                       __ZN2gc21StridedBlockInvariant6createENSt3__110shared_ptrINS_6BufferEEEj, 
                       __ZN2gc21StridedBlockInvariantC1ENSt3__110shared_ptrINS_6BufferEEEj, 
                       __ZN2gc21StridedBlockInvariantC2ENSt3__110shared_ptrINS_6BufferEEEj, 
                       __ZN2gc21TypedExternalFunctionILNS_13eTargetDeviceE1EE13parseFunctionERKNSt3__112basic_stringIcNS3_11char_traitsIcEENS3_9allocatorIcEEEESB_R17loopkit_rt_type_tRNS3_6vectorINS_16ExternalFunction11eMutabilityENS7_ISG_EEEE, 
                       __ZN2gc21TypedExternalFunctionILNS_13eTargetDeviceE1EE8readFileERKNSt3__14__fs10filesystem4pathERNS3_12basic_stringIcNS3_11char_traitsIcEENS3_9allocatorIcEEEE, 
                       __ZN2gc21defaultScheduleTraitsEv, __ZN2gc22EqualElementsInvariant6createENSt3__16vectorINS1_10shared_ptrINS_6BufferEEENS1_9allocatorIS5_EEEE, 
                       __ZN2gc22EqualElementsInvariantC1ENSt3__16vectorINS1_10shared_ptrINS_6BufferEEENS1_9allocatorIS5_EEEE, 
                       __ZN2gc22EqualElementsInvariantC2ENSt3__16vectorINS1_10shared_ptrINS_6BufferEEENS1_9allocatorIS5_EEEE, 
                       __ZN2gc22ExactElementsInvariant6createENS_14ElementExtentsE, 
                       __ZN2gc22ExactElementsInvariantC1ENS_14ElementExtentsE, __ZN2gc22ExactElementsInvariantC2ENS_14ElementExtentsE, 
                       __ZN2gc22ScalarColumnsInvariant6createENSt3__110shared_ptrINS_6BufferEEEj, 
                       __ZN2gc23GenericBindableArgument16bufferParametersERNS_19BufferParametersSetE, 
                       __ZN2gc23GenericBindableArgument2atEm, __ZN2gc23GenericBindableArgument3endEv, 
                       __ZN2gc23GenericBindableArgument5beginEv, __ZN2gc23GenericBindableArgument6insertENSt3__110shared_ptrINS_22OpaqueBindableArgumentEEE, 
                       __ZN2gc23resetUniqueNameCountersEv, __ZN2gc24BufferHandleViewRegistry13findOrEmplaceENSt3__110shared_ptrINS_12BufferHandleEEERKNS_5ShapeERKNS_4ExprE, 
                       __ZN2gc24BufferHandleViewRegistry8instanceEv, __ZN2gc24FunctionOfBlockInvariant6createENSt3__16vectorINS1_10shared_ptrINS_6BufferEEENS1_9allocatorIS5_EEEENS1_8functionIFNS_12BlockExtentsERKSA_EEE, 
                       __ZN2gc24FunctionOfBlockInvariantC1ENSt3__16vectorINS1_10shared_ptrINS_6BufferEEENS1_9allocatorIS5_EEEENS1_8functionIFNS_12BlockExtentsERKSA_EEE, 
                       __ZN2gc24FunctionOfBlockInvariantC2ENSt3__16vectorINS1_10shared_ptrINS_6BufferEEENS1_9allocatorIS5_EEEENS1_8functionIFNS_12BlockExtentsERKSA_EEE, 
                       __ZN2gc24ScalarwiseBlockInvariant6createENSt3__16vectorINS1_10shared_ptrINS_6BufferEEENS1_9allocatorIS5_EEEE, 
                       __ZN2gc24ScalarwiseBlockInvariantC1ENSt3__16vectorINS1_10shared_ptrINS_6BufferEEENS1_9allocatorIS5_EEEE, 
                       __ZN2gc24ScalarwiseBlockInvariantC2ENSt3__16vectorINS1_10shared_ptrINS_6BufferEEENS1_9allocatorIS5_EEEE, 
                       __ZN2gc30getTargetPlatformArchitecturesEv, __ZN2gc3Arg4typeE17loopkit_rt_type_t, 
                       __ZN2gc3Arg4typeENSt3__110shared_ptrINS_6BufferEEE, __ZN2gc3Arg5equalENSt3__110shared_ptrINS_6BufferEEE, 
                       __ZN2gc3Arg6blocksENS_12BlockExtentsE, __ZN2gc3Arg6blocksENSt3__110shared_ptrINS_6BufferEEE, 
                       __ZN2gc3Arg6blocksENSt3__16vectorINS1_10shared_ptrINS_6BufferEEENS1_9allocatorIS5_EEEE, 
                       __ZN2gc3Arg8elementsENS_14ElementExtentsE, __ZN2gc3Arg8elementsENSt3__110shared_ptrINS_6BufferEEE, 
                       __ZN2gc3ArgC1ENSt3__110shared_ptrINS_6BufferEEE, __ZN2gc3ArgC1ERKNSt3__112basic_stringIcNS1_11char_traitsIcEENS1_9allocatorIcEEEE, 
                       __ZN2gc3ArgC2ENSt3__110shared_ptrINS_6BufferEEE, __ZN2gc3ArgC2ERKNSt3__112basic_stringIcNS1_11char_traitsIcEENS1_9allocatorIcEEEE, 
                       __ZN2gc3absENS_4ExprE, __ZN2gc3cosENS_4ExprE, __ZN2gc3est10EvaluateHp10createNameERKNSt3__112basic_stringIcNS2_11char_traitsIcEENS2_9allocatorIcEEEE, 
                       __ZN2gc3est10EvaluateHp14setTileExtentsEv, __ZN2gc3est10EvaluateHp6kernelERKNS_8ScheduleE, 
                       __ZN2gc3est10EvaluateHp8findTileEjj, __ZN2gc3est10EvaluateHpC1ERKNSt3__110shared_ptrINS0_11FactorGraphEEERKNS0_16BlockMatrixArrayERKNS0_11VariableMapERSB_, 
                       __ZN2gc3est10EvaluateHpC2ERKNSt3__110shared_ptrINS0_11FactorGraphEEERKNS0_16BlockMatrixArrayERKNS0_11VariableMapERSB_, 
                       __ZN2gc3est10EvaluateJp10createNameERKNSt3__112basic_stringIcNS2_11char_traitsIcEENS2_9allocatorIcEEEE, 
                       __ZN2gc3est10EvaluateJp14setTileExtentsEv, __ZN2gc3est10EvaluateJp6kernelERKNS_8ScheduleE, 
                       __ZN2gc3est10EvaluateJp8findTileERKNSt3__112basic_stringIcNS2_11char_traitsIcEENS2_9allocatorIcEEEEjb, 
                       __ZN2gc3est10EvaluateJpC1ENSt3__110shared_ptrINS0_11FactorGraphEEERKNS0_17FactorJacobianSetERKNS0_11VariableMapERKNS0_9FactorMapE, 
                       __ZN2gc3est10EvaluateJpC2ENSt3__110shared_ptrINS0_11FactorGraphEEERKNS0_17FactorJacobianSetERKNS0_11VariableMapERKNS0_9FactorMapE, 
                       __ZN2gc3est10FactorData13addConstraintERKNSt3__16vectorINS3_IjNS2_9allocatorIjEEEENS4_IS6_EEEE, 
                       __ZN2gc3est10FactorData14addConstraintsERKNSt3__16vectorINS3_INS3_IjNS2_9allocatorIjEEEENS4_IS6_EEEENS4_IS8_EEEE, 
                       __ZN2gc3est10FactorData4dataEj, __ZN2gc3est10FactorData7offsetsEj, 
                       __ZN2gc3est10FactorData7reserveEjj, __ZN2gc3est10FactorDataC1ESt16initializer_listINSt3__16vectorINS4_IjNS3_9allocatorIjEEEENS5_IS7_EEEEE, 
                       __ZN2gc3est10FactorDataC2ESt16initializer_listINSt3__16vectorINS4_IjNS3_9allocatorIjEEEENS5_IS7_EEEEE, 
                       __ZN2gc3est10NoiseModel13setParametersERKNSt3__16vectorIdNS2_9allocatorIdEEEE, 
                       __ZN2gc3est10NoiseModel5resetEj17loopkit_rt_type_tPvNS_4util10TaggedBoolINS_11DeepCopyTagEEE, 
                       __ZN2gc3est10NoiseModel5resetEjPvNS_4util10TaggedBoolINS_11DeepCopyTagEEE, 
                       __ZN2gc3est10NoiseModel6createE17loopkit_rt_type_tNS0_15eNoiseModelTypeEjNS_4util10TaggedBoolINS0_14HomogeneousTagEEE, 
                       __ZN2gc3est10NoiseModel6createE17loopkit_rt_type_tNS0_15eNoiseModelTypeEjjNS_4util10TaggedBoolINS0_14HomogeneousTagEEEPvNS5_INS_11DeepCopyTagEEE, 
                       __ZN2gc3est10SparseLDLtIdE5solveEiPdRKNS0_19SparseFactorizationIdEE, 
                       __ZN2gc3est10SparseLDLtIdE9factorizeERKNS0_16BlockMatrixArrayERNS0_19SparseFactorizationIdEE, 
                       __ZN2gc3est10SparseLDLtIfE5solveEiPfRKNS0_19SparseFactorizationIfEE, 
                       __ZN2gc3est10SparseLDLtIfE9factorizeERKNS0_16BlockMatrixArrayERNS0_19SparseFactorizationIfEE, 
                       __ZN2gc3est10TripletSetC2E17loopkit_rt_type_t, __ZN2gc3est11BlockMatrixC2ERKNS_14ElementExtentsERKNSt3__16vectorIjNS_15BufferAllocatorIjEEEE17loopkit_rt_type_t, 
                       __ZN2gc3est11EvaluateJtJ10createNameERKNSt3__112basic_stringIcNS2_11char_traitsIcEENS2_9allocatorIcEEEE, 
                       __ZN2gc3est11EvaluateJtJ14setTileExtentsEv, __ZN2gc3est11EvaluateJtJ6kernelERKNS_8ScheduleE, 
                       __ZN2gc3est11EvaluateJtJ8findTileERKNSt3__112basic_stringIcNS2_11char_traitsIcEENS2_9allocatorIcEEEEjj, 
                       __ZN2gc3est11EvaluateJtJC1ENSt3__110shared_ptrINS0_11FactorGraphEEERKNS0_17FactorJacobianSetERKNS0_16BlockOrderingSetERNS0_16BlockMatrixArrayE, 
                       __ZN2gc3est11EvaluateJtJC2ENSt3__110shared_ptrINS0_11FactorGraphEEERKNS0_17FactorJacobianSetERKNS0_16BlockOrderingSetERNS0_16BlockMatrixArrayE, 
                       __ZN2gc3est11EvaluateJte10createNameERKNSt3__112basic_stringIcNS2_11char_traitsIcEENS2_9allocatorIcEEEE, 
                       __ZN2gc3est11EvaluateJte14setTileExtentsEv, __ZN2gc3est11EvaluateJte6kernelERKNS_8ScheduleE, 
                       __ZN2gc3est11EvaluateJte8findTileERKNSt3__112basic_stringIcNS2_11char_traitsIcEENS2_9allocatorIcEEEEj, 
                       __ZN2gc3est11EvaluateJteC1ENSt3__110shared_ptrINS0_11FactorGraphEEERKNS0_17FactorJacobianSetERKNS0_11VariableMapE, 
                       __ZN2gc3est11EvaluateJteC2ENSt3__110shared_ptrINS0_11FactorGraphEEERKNS0_17FactorJacobianSetERKNS0_11VariableMapE, 
                       __ZN2gc3est11FactorGraph11addVariableENSt3__110shared_ptrINS0_8VariableEEENS_4util10TaggedBoolINS0_13IsConstantTagEEE, 
                       __ZN2gc3est11FactorGraph14contractFactorENSt3__110shared_ptrINS0_6FactorEEE, 
                       __ZN2gc3est11FactorGraph14groupVariablesERKNSt3__112basic_stringIcNS2_11char_traitsIcEENS2_9allocatorIcEEEERKNS2_6vectorIS8_NS6_IS8_EEEE, 
                       __ZN2gc3est11FactorGraph16markAsEliminableERKNSt3__112basic_stringIcNS2_11char_traitsIcEENS2_9allocatorIcEEEE, 
                       __ZN2gc3est11FactorGraph19allocateFactoryImplEv, __ZN2gc3est11FactorGraph5clearEv, 
                       __ZN2gc3est11FactorGraph6createERKNSt3__112basic_stringIcNS2_11char_traitsIcEENS2_9allocatorIcEEEE, 
                       __ZN2gc3est11FactorGraph8finalizeEv, __ZN2gc3est11FactorGraph8setStateERKNSt3__112basic_stringIcNS2_11char_traitsIcEENS2_9allocatorIcEEEEjNS0_14eVariableStateE, 
                       __ZN2gc3est11FactorGraph9addFactorENSt3__110shared_ptrINS0_6FactorEEE, 
                       __ZN2gc3est11FactorGraph9setStatesERKNSt3__112basic_stringIcNS2_11char_traitsIcEENS2_9allocatorIcEEEERKNS2_3setIjNS2_4lessIjEENS6_IjEEEENS0_14eVariableStateE, 
                       __ZN2gc3est11JacobianMap5clearEv, __ZN2gc3est11JacobianMap7setZeroEv, 
                       __ZN2gc3est11JacobianMap8allocateE17loopkit_rt_type_tRKNS0_11FactorGraphE, 
                       __ZN2gc3est11PCGIterate110createNameERKNSt3__112basic_stringIcNS2_11char_traitsIcEENS2_9allocatorIcEEEE, 
                       __ZN2gc3est11PCGIterate114setTileExtentsEv, __ZN2gc3est11PCGIterate14setbERKNS0_9BufferMapE, 
                       __ZN2gc3est11PCGIterate16kernelERKNS_8ScheduleE, __ZN2gc3est11PCGIterate18findTileERKNSt3__112basic_stringIcNS2_11char_traitsIcEENS2_9allocatorIcEEEE, 
                       __ZN2gc3est11PCGIterate1C1ERKNSt3__112basic_stringIcNS2_11char_traitsIcEENS2_9allocatorIcEEEERKNS2_10shared_ptrINS_6BufferEEERKNS0_11VariableMapESI_SI_SI_SI_, 
                       __ZN2gc3est11PCGIterate1C2ERKNSt3__112basic_stringIcNS2_11char_traitsIcEENS2_9allocatorIcEEEERKNS2_10shared_ptrINS_6BufferEEERKNS0_11VariableMapESI_SI_SI_SI_, 
                       __ZN2gc3est11PCGIterate210createNameERKNSt3__112basic_stringIcNS2_11char_traitsIcEENS2_9allocatorIcEEEE, 
                       __ZN2gc3est11PCGIterate214setTileExtentsEv, __ZN2gc3est11PCGIterate26kernelERKNS_8ScheduleE, 
                       __ZN2gc3est11PCGIterate28findTileERKNSt3__112basic_stringIcNS2_11char_traitsIcEENS2_9allocatorIcEEEE, 
                       __ZN2gc3est11PCGIterate2C1ERKNSt3__112basic_stringIcNS2_11char_traitsIcEENS2_9allocatorIcEEEERKNS0_11VariableMapESD_RKNS2_10shared_ptrINS_6BufferEEE, 
                       __ZN2gc3est11PCGIterate2C2ERKNSt3__112basic_stringIcNS2_11char_traitsIcEENS2_9allocatorIcEEEERKNS0_11VariableMapESD_RKNS2_10shared_ptrINS_6BufferEEE, 
                       __ZN2gc3est11TypedFactorILNS0_11eFactorTypeE1EE12scheduleImplERKNS_8ScheduleE, 
                       __ZN2gc3est11TypedFactorILNS0_11eFactorTypeE1EE19allocateFactoryImplEv, 
                       __ZN2gc3est11TypedFactorILNS0_11eFactorTypeE1EE4costEv, __ZN2gc3est11TypedFactorILNS0_11eFactorTypeE1EE6createENSt3__110shared_ptrINS0_12CostFunctionEEENS4_4pairINS5_INS0_8VariableEEENS4_6vectorISA_NS4_9allocatorISA_EEEEEERKNS4_12basic_stringIcNS4_11char_traitsIcEENSC_IcEEEE, 
                       __ZN2gc3est11TypedFactorILNS0_11eFactorTypeE1EE6createENSt3__110shared_ptrINS0_13ModelFunctionEEENS4_4pairINS5_INS0_8VariableEEENS4_6vectorISA_NS4_9allocatorISA_EEEEEERKNS4_12basic_stringIcNS4_11char_traitsIcEENSC_IcEEEE, 
                       __ZN2gc3est11TypedFactorILNS0_11eFactorTypeE1EE6createENSt3__110shared_ptrINS0_13ModelFunctionEEENS5_INS0_24LeastSquaresLossFunctionEEENS4_4pairINS5_INS0_8VariableEEENS4_6vectorISC_NS4_9allocatorISC_EEEEEERKNS4_12basic_stringIcNS4_11char_traitsIcEENSE_IcEEEE, 
                       __ZN2gc3est11TypedFactorILNS0_11eFactorTypeE1EE7epsilonENS_4util10TaggedBoolINS0_12RecomputeTagEEE, 
                       __ZN2gc3est11TypedFactorILNS0_11eFactorTypeE1EEC1ENSt3__110shared_ptrINS0_12CostFunctionEEENS4_4pairINS5_INS0_8VariableEEENS4_6vectorISA_NS4_9allocatorISA_EEEEEERKNS4_12basic_stringIcNS4_11char_traitsIcEENSC_IcEEEE, 
                       __ZN2gc3est11TypedFactorILNS0_11eFactorTypeE1EEC2ENSt3__110shared_ptrINS0_12CostFunctionEEENS4_4pairINS5_INS0_8VariableEEENS4_6vectorISA_NS4_9allocatorISA_EEEEEERKNS4_12basic_stringIcNS4_11char_traitsIcEENSC_IcEEEE, 
                       __ZN2gc3est11VariableMap13createBuffersENS0_15eVariableSubsetE17loopkit_rt_type_tRKNS0_11FactorGraphENS_4util10TaggedBoolINS_17AllocateMemoryTagEEE, 
                       __ZN2gc3est11VariableMap7setTypeE17loopkit_rt_type_t, __ZN2gc3est11VariableMap8allocateEv, 
                       __ZN2gc3est11VariableSet13restoreParamsERKNS0_9BufferMapERKNSt3__18functionIFbRKNS0_8VariableEEEE, 
                       __ZN2gc3est11VariableSet6insertENSt3__110shared_ptrINS0_8VariableEEE, 
                       __ZN2gc3est11VariableSetC1ENSt3__16vectorINS2_10shared_ptrINS0_8VariableEEENS2_9allocatorIS6_EEEE, 
                       __ZN2gc3est11VariableSetC2ENSt3__16vectorINS2_10shared_ptrINS0_8VariableEEENS2_9allocatorIS6_EEEE, 
                       __ZN2gc3est11VariableSetixEj, __ZN2gc3est12EvaluateJtJp10createNameERKNSt3__112basic_stringIcNS2_11char_traitsIcEENS2_9allocatorIcEEEE, 
                       __ZN2gc3est12EvaluateJtJp14setTileExtentsEv, __ZN2gc3est12EvaluateJtJp6kernelERKNS_8ScheduleE, 
                       __ZN2gc3est12EvaluateJtJp8findTileERKNSt3__112basic_stringIcNS2_11char_traitsIcEENS2_9allocatorIcEEEEj, 
                       __ZN2gc3est12EvaluateJtJpC1ENSt3__110shared_ptrINS0_11FactorGraphEEERKNS0_17FactorJacobianSetERKNS0_9FactorMapERKNS0_11VariableMapE, 
                       __ZN2gc3est12EvaluateJtJpC2ENSt3__110shared_ptrINS0_11FactorGraphEEERKNS0_17FactorJacobianSetERKNS0_9FactorMapERKNS0_11VariableMapE, 
                       __ZN2gc3est12EvaluateJteM10createNameERKNSt3__112basic_stringIcNS2_11char_traitsIcEENS2_9allocatorIcEEEE, 
                       __ZN2gc3est12EvaluateJteM14setTileExtentsEv, __ZN2gc3est12EvaluateJteM6kernelERKNS_8ScheduleE, 
                       __ZN2gc3est12EvaluateJteM8findTileERKNSt3__112basic_stringIcNS2_11char_traitsIcEENS2_9allocatorIcEEEEj, 
                       __ZN2gc3est12EvaluateJteMC1ENSt3__110shared_ptrINS0_11FactorGraphEEERKNS0_17FactorJacobianSetERKNS0_11VariableMapESB_, 
                       __ZN2gc3est12EvaluateJteMC2ENSt3__110shared_ptrINS0_11FactorGraphEEERKNS0_17FactorJacobianSetERKNS0_11VariableMapESB_, 
                       __ZN2gc3est12InvertBlockM10createNameERKNSt3__112basic_stringIcNS2_11char_traitsIcEENS2_9allocatorIcEEEE, 
                       __ZN2gc3est12InvertBlockM14setTileExtentsEv, __ZN2gc3est12InvertBlockM6kernelERKNS_8ScheduleE, 
                       __ZN2gc3est12InvertBlockM8findTileERKNSt3__112basic_stringIcNS2_11char_traitsIcEENS2_9allocatorIcEEEE, 
                       __ZN2gc3est12InvertBlockMC1ERKNSt3__112basic_stringIcNS2_11char_traitsIcEENS2_9allocatorIcEEEERKNS0_14InformationMapESD_, 
                       __ZN2gc3est12InvertBlockMC2ERKNSt3__112basic_stringIcNS2_11char_traitsIcEENS2_9allocatorIcEEEERKNS0_14InformationMapESD_, 
                       __ZN2gc3est12LinearSolver6createENS0_17eLinearSolverTypeENS0_18eLinearizationTypeERKNS1_7OptionsERKNS0_11FactorGraphE, 
                       __ZN2gc3est12allVariablesEv, __ZN2gc3est13BlockOrdering6createERKNS0_6FactorERKNS0_16VariableGroupSetEjjNS_4util10TaggedBoolINS0_14ReducedOnlyTagEEE, 
                       __ZN2gc3est13BlockOrdering7reorderERKNS0_6FactorERKNS0_16VariableGroupSetE, 
                       __ZN2gc3est13FactorBuffers5clearEv, __ZN2gc3est13FactorBuffers5resetEjjPjS2_NS_4util10TaggedBoolINS_11DeepCopyTagEEE, 
                       __ZN2gc3est13FactorBuffersC1Ej, __ZN2gc3est13FactorBuffersC2Ej, 
                       __ZN2gc3est13GaussianPrior6createENSt3__110shared_ptrINS0_8VariableEEES5_NS3_INS0_10NoiseModelEEERKNS2_12basic_stringIcNS2_11char_traitsIcEENS2_9allocatorIcEEEE, 
                       __ZN2gc3est13GaussianPrior6createENSt3__110shared_ptrINS0_8VariableEEES5_NS3_INS0_8BoxMinusEEENS3_INS0_10NoiseModelEEERKNS2_12basic_stringIcNS2_11char_traitsIcEENS2_9allocatorIcEEEE, 
                       __ZN2gc3est13GaussianPrior6createENSt3__110shared_ptrINS0_8VariableEEES5_NS3_INS0_8BoxMinusEEERKNS2_12basic_stringIcNS2_11char_traitsIcEENS2_9allocatorIcEEEE, 
                       __ZN2gc3est13GaussianPrior6createENSt3__110shared_ptrINS0_8VariableEEES5_RKNS2_12basic_stringIcNS2_11char_traitsIcEENS2_9allocatorIcEEEE, 
                       __ZN2gc3est13ModelFunction17evaluateDimensionERKNSt3__16vectorINS2_10shared_ptrINS0_8VariableEEENS2_9allocatorIS6_EEEE, 
                       __ZN2gc3est13VariableGroup12scheduleImplERKNS_8ScheduleE, 
                       __ZN2gc3est13VariableGroup13updateOffsetsEv, __ZN2gc3est13VariableGroup19allocateFactoryImplEv, 
                       __ZN2gc3est13VariableGroup22maybeInitializeOffsetsEv, __ZN2gc3est13VariableGroup6createERKNSt3__112basic_stringIcNS2_11char_traitsIcEENS2_9allocatorIcEEEERKNS2_6vectorINS2_10shared_ptrINS0_8VariableEEENS6_ISE_EEEENS_4util10TaggedBoolINS0_13IsConstantTagEEE, 
                       __ZN2gc3est13VariableGroup6updateENSt3__110shared_ptrINS_6BufferEEENS_4util10TaggedBoolINS0_11FreeOnlyTagEEE, 
                       __ZN2gc3est13VariableGroup8setStateEjNS0_14eVariableStateE, 
                       __ZN2gc3est13VariableGroup9setStatesENS0_14eVariableStateE, 
                       __ZN2gc3est13VariableGroupC1ERKNSt3__112basic_stringIcNS2_11char_traitsIcEENS2_9allocatorIcEEEERKNS2_6vectorINS2_10shared_ptrINS0_8VariableEEENS6_ISE_EEEENS_4util10TaggedBoolINS0_13IsConstantTagEEE, 
                       __ZN2gc3est13VariableGroupC2ERKNSt3__112basic_stringIcNS2_11char_traitsIcEENS2_9allocatorIcEEEERKNS2_6vectorINS2_10shared_ptrINS0_8VariableEEENS6_ISE_EEEENS_4util10TaggedBoolINS0_13IsConstantTagEEE, 
                       __ZN2gc3est14EvaluateBlockM10createNameERKNSt3__112basic_stringIcNS2_11char_traitsIcEENS2_9allocatorIcEEEE, 
                       __ZN2gc3est14EvaluateBlockM14setTileExtentsEv, __ZN2gc3est14EvaluateBlockM6kernelERKNS_8ScheduleE, 
                       __ZN2gc3est14EvaluateBlockM8findTileERKNSt3__112basic_stringIcNS2_11char_traitsIcEENS2_9allocatorIcEEEEj, 
                       __ZN2gc3est14EvaluateBlockMC1ENSt3__110shared_ptrINS0_11FactorGraphEEERKNS0_17FactorJacobianSetERKNS0_11VariableMapERKNS0_14InformationMapE, 
                       __ZN2gc3est14EvaluateBlockMC2ENSt3__110shared_ptrINS0_11FactorGraphEEERKNS0_17FactorJacobianSetERKNS0_11VariableMapERKNS0_14InformationMapE, 
                       __ZN2gc3est14ExtractDiagJtJ10createNameERKNSt3__112basic_stringIcNS2_11char_traitsIcEENS2_9allocatorIcEEEE, 
                       __ZN2gc3est14ExtractDiagJtJ14setTileExtentsEv, __ZN2gc3est14ExtractDiagJtJ6kernelERKNS_8ScheduleE, 
                       __ZN2gc3est14ExtractDiagJtJ8findTileEj, __ZN2gc3est14ExtractDiagJtJC1ERKNSt3__110shared_ptrINS0_11FactorGraphEEERKNS0_16BlockMatrixArrayERNS0_14InformationMapERNS0_11VariableMapE, 
                       __ZN2gc3est14ExtractDiagJtJC2ERKNSt3__110shared_ptrINS0_11FactorGraphEEERKNS0_16BlockMatrixArrayERNS0_14InformationMapERNS0_11VariableMapE, 
                       __ZN2gc3est14FactorJacobian7setTypeENS0_13eJacobianTypeE, 
                       __ZN2gc3est14FactorJacobianC1ENS0_13eJacobianTypeE, __ZN2gc3est14FactorJacobianC1Ev, 
                       __ZN2gc3est14FactorJacobianC2ENS0_13eJacobianTypeE, __ZN2gc3est14FactorJacobianC2Ev, 
                       __ZN2gc3est14FactorOrdering6createERKNS0_6FactorERKNS0_16VariableGroupSetEj, 
                       __ZN2gc3est14InformationMap13createBuffersENS0_15eVariableSubsetE17loopkit_rt_type_tRKNS0_11FactorGraphENS_4util10TaggedBoolINS_17AllocateMemoryTagEEE, 
                       __ZN2gc3est14InformationMap7setTypeE17loopkit_rt_type_t, __ZN2gc3est14InformationMap8allocateEv, 
                       __ZN2gc3est14Preconditioner6createENS0_19ePreconditionerTypeENS0_18eLinearizationTypeERKNS0_11FactorGraphE, 
                       __ZN2gc3est14SchurLinearize10createNameERKNSt3__112basic_stringIcNS2_11char_traitsIcEENS2_9allocatorIcEEEENS2_8optionalINS0_30eLevenbergMarquardtDampingTypeEEE, 
                       __ZN2gc3est14SchurLinearize10kernelNameERKNSt3__112basic_stringIcNS2_11char_traitsIcEENS2_9allocatorIcEEEE, 
                       __ZN2gc3est14SchurLinearize10kernelNameERKNSt3__112basic_stringIcNS2_11char_traitsIcEENS2_9allocatorIcEEEEj, 
                       __ZN2gc3est14SchurLinearize14setTileExtentsEv, __ZN2gc3est14SchurLinearize6kernelERKNS_8ScheduleE, 
                       __ZN2gc3est14SchurLinearize8findTileERKNSt3__112basic_stringIcNS2_11char_traitsIcEENS2_9allocatorIcEEEE, 
                       __ZN2gc3est14SchurLinearize8findTileERKNSt3__112basic_stringIcNS2_11char_traitsIcEENS2_9allocatorIcEEEEj, 
                       __ZN2gc3est14SchurLinearizeC1ENSt3__18optionalINS0_30eLevenbergMarquardtDampingTypeEEENS2_10shared_ptrINS0_11FactorGraphEEERKNS0_17FactorJacobianSetERKNS6_INS_6BufferEEERKNS0_16BlockMatrixArrayERKNS0_25SchurEliminatedHessianSetERKNS0_11VariableMapESO_SO_NS0_14InformationMapE, 
                       __ZN2gc3est14SchurLinearizeC2ENSt3__18optionalINS0_30eLevenbergMarquardtDampingTypeEEENS2_10shared_ptrINS0_11FactorGraphEEERKNS0_17FactorJacobianSetERKNS6_INS_6BufferEEERKNS0_16BlockMatrixArrayERKNS0_25SchurEliminatedHessianSetERKNS0_11VariableMapESO_SO_NS0_14InformationMapE, 
                       __ZN2gc3est15DenseLDLTSolver12scheduleImplERKNS_8ScheduleE, 
                       __ZN2gc3est15DenseLDLTSolver19allocateFactoryImplEv, __ZN2gc3est15DenseLDLTSolver5solveERKNS0_12LinearSolver12SolveOptionsEPNS0_18LinearizationPointERNS0_11VariableMapE, 
                       __ZN2gc3est15DenseLDLTSolver6createERKNS0_12LinearSolver7OptionsERKNS0_11FactorGraphE, 
                       __ZN2gc3est15FactorGradients12scheduleImplERKNS_8ScheduleE, 
                       __ZN2gc3est15FactorGradientsC1EPNS0_6FactorE, __ZN2gc3est15FactorGradientsC2EPNS0_6FactorE, 
                       __ZN2gc3est15FactorJacobians12scheduleImplERKNS_8ScheduleE, 
                       __ZN2gc3est15FactorJacobians15prepForAllocateERKNS0_16VariableGroupSetE, 
                       __ZN2gc3est15FactorJacobians19allocateFactoryImplEv, __ZN2gc3est15FactorJacobians2atEm, 
                       __ZN2gc3est15FactorJacobians3endEv, __ZN2gc3est15FactorJacobians5beginEv, 
                       __ZN2gc3est15FactorJacobians6createENSt3__110shared_ptrINS0_6FactorEEERKNS0_16VariableGroupSetE, 
                       __ZN2gc3est15FactorJacobians9linearizeEv, __ZN2gc3est15FactorJacobiansC1ERKNSt3__110shared_ptrINS0_6FactorEEE, 
                       __ZN2gc3est15FactorJacobiansC2ERKNSt3__110shared_ptrINS0_6FactorEEE, 
                       __ZN2gc3est15FactorJacobiansixEm, __ZN2gc3est15VariableOffsets5resetEj, 
                       __ZN2gc3est15VariableOffsets5resetEv, __ZN2gc3est15VariableOffsets6bufferEv, 
                       __ZN2gc3est15VariableOffsets6updateERKNS0_13VariableGroupE, 
                       __ZN2gc3est15VariableOffsetsC1ERKNSt3__112basic_stringIcNS2_11char_traitsIcEENS2_9allocatorIcEEEEj, 
                       __ZN2gc3est15VariableOffsetsC1EjPjNS_4util10TaggedBoolINS_11DeepCopyTagEEE, 
                       __ZN2gc3est15VariableOffsetsC2ERKNSt3__112basic_stringIcNS2_11char_traitsIcEENS2_9allocatorIcEEEEj, 
                       __ZN2gc3est15VariableOffsetsC2EjPjNS_4util10TaggedBoolINS_11DeepCopyTagEEE, 
                       __ZN2gc3est15loadFactorGraphERKNSt3__14__fs10filesystem4pathERNS0_11FactorGraphENS_4util10TaggedBoolINS0_15PreserveNameTagEEERNS1_13basic_ostreamIcNS1_11char_traitsIcEEEE, 
                       __ZN2gc3est15saveFactorGraphERKNSt3__14__fs10filesystem4pathERKNS0_11FactorGraphE, 
                       __ZN2gc3est16BlockMatrixArray10symmetrizeEv, __ZN2gc3est16BlockMatrixArray13createBuffersE17loopkit_rt_type_tRKNS0_11FactorGraphERKNS0_16BlockOrderingSetENS_4util10TaggedBoolINS0_14ReducedOnlyTagEEE, 
                       __ZN2gc3est16BlockMatrixArray13createBuffersEjNS_4util10TaggedBoolINS0_18SymmetricMatrixTagEEE, 
                       __ZN2gc3est16BlockMatrixArray6matrixEjj, __ZN2gc3est16BlockMatrixArray7setZeroEv, 
                       __ZN2gc3est16BlockOrderingSet3endEv, __ZN2gc3est16BlockOrderingSet4findERKNSt3__112basic_stringIcNS2_11char_traitsIcEENS2_9allocatorIcEEEE, 
                       __ZN2gc3est16BlockOrderingSet5beginEv, __ZN2gc3est16BlockOrderingSet8allocateERKNS0_6FactorERKNS0_16VariableGroupSetENS_4util10TaggedBoolINS0_14ReducedOnlyTagEEE, 
                       __ZN2gc3est16DenseBlockMatrix12resetBuffersEjjRKNS0_18BlockAdjacencyListE, 
                       __ZN2gc3est16DenseBlockMatrix5resetENSt3__110shared_ptrINS0_11BlockMatrixEEE, 
                       __ZN2gc3est16DenseBlockMatrix6bufferEv, __ZN2gc3est16DenseBlockMatrix6createENS0_15BlockMatrixSizeE17loopkit_rt_type_tjj, 
                       __ZN2gc3est16DenseBlockMatrix7setZeroEv, __ZN2gc3est16DenseBlockMatrixC1ENS0_15BlockMatrixSizeE17loopkit_rt_type_tjj, 
                       __ZN2gc3est16DenseBlockMatrixC2ENS0_15BlockMatrixSizeE17loopkit_rt_type_tjj, 
                       __ZN2gc3est16SparseLDLTSolver12scheduleImplERKNS_8ScheduleE, 
                       __ZN2gc3est16SparseLDLTSolver19allocateFactoryImplEv, __ZN2gc3est16SparseLDLTSolver5solveERKNS0_12LinearSolver12SolveOptionsEPNS0_18LinearizationPointERNS0_11VariableMapE, 
                       __ZN2gc3est16SparseLDLTSolver6createERKNS0_12LinearSolver7OptionsERKNS0_11FactorGraphE, 
                       __ZN2gc3est16VariableGroupSet14groupVariablesERKNSt3__112basic_stringIcNS2_11char_traitsIcEENS2_9allocatorIcEEEERKNS2_6vectorINS2_10shared_ptrINS0_8VariableEEENS6_ISE_EEEE, 
                       __ZN2gc3est16VariableGroupSet14groupVariablesERKNSt3__112basic_stringIcNS2_11char_traitsIcEENS2_9allocatorIcEEEERKNS2_6vectorIS8_NS6_IS8_EEEE, 
                       __ZN2gc3est16VariableGroupSet4findERKNSt3__112basic_stringIcNS2_11char_traitsIcEENS2_9allocatorIcEEEE, 
                       __ZN2gc3est16VariableGroupSet5clearEv, __ZN2gc3est16VariableGroupSet6insertERKNSt3__110shared_ptrINS0_8VariableEEENS_4util10TaggedBoolINS0_13IsConstantTagEEE, 
                       __ZN2gc3est16VariableGroupSet6updateERKNS0_9BufferMapENS_4util10TaggedBoolINS0_11FreeOnlyTagEEENS6_INS0_10RectifyTagEEE, 
                       __ZN2gc3est16makePriorFactorsEj, __ZN2gc3est16saveSolveSummaryERKNSt3__14__fs10filesystem4pathERKNS0_9Minimizer12SolveSummaryE, 
                       __ZN2gc3est17FactorJacobianSet8allocateERKNS0_11FactorGraphE, 
                       __ZN2gc3est17FactorJacobianSet9linearizeEv, __ZN2gc3est17FactorOrderingSet3endEv, 
                       __ZN2gc3est17FactorOrderingSet4findERKNSt3__112basic_stringIcNS2_11char_traitsIcEENS2_9allocatorIcEEEE, 
                       __ZN2gc3est17FactorOrderingSet5beginEv, __ZN2gc3est17FactorOrderingSet8allocateERKNS0_6FactorERKNS0_16VariableGroupSetE, 
                       __ZN2gc3est17SymmetrizeDiagJtJ10createNameERKNSt3__112basic_stringIcNS2_11char_traitsIcEENS2_9allocatorIcEEEE, 
                       __ZN2gc3est17SymmetrizeDiagJtJ14setTileExtentsEv, __ZN2gc3est17SymmetrizeDiagJtJ6kernelERKNS_8ScheduleE, 
                       __ZN2gc3est17SymmetrizeDiagJtJ8findTileEj, __ZN2gc3est17SymmetrizeDiagJtJC1ERKNSt3__112basic_stringIcNS2_11char_traitsIcEENS2_9allocatorIcEEEERNS0_16BlockMatrixArrayE, 
                       __ZN2gc3est17SymmetrizeDiagJtJC2ERKNSt3__112basic_stringIcNS2_11char_traitsIcEENS2_9allocatorIcEEEERNS0_16BlockMatrixArrayE, 
                       __ZN2gc3est18BlockAdjacencyList6appendES1_, __ZN2gc3est18FactorBufferEditor3setEjjj, 
                       __ZN2gc3est18FactorBufferEditorC1ERNS0_6FactorE, __ZN2gc3est18FactorBufferEditorC2ERNS0_6FactorE, 
                       __ZN2gc3est18ImplicitSchurJtJp110createNameERKNSt3__112basic_stringIcNS2_11char_traitsIcEENS2_9allocatorIcEEEE, 
                       __ZN2gc3est18ImplicitSchurJtJp110kernelNameERKNSt3__112basic_stringIcNS2_11char_traitsIcEENS2_9allocatorIcEEEEj, 
                       __ZN2gc3est18ImplicitSchurJtJp114setTileExtentsEv, __ZN2gc3est18ImplicitSchurJtJp16kernelERKNS_8ScheduleE, 
                       __ZN2gc3est18ImplicitSchurJtJp18findTileERKNSt3__112basic_stringIcNS2_11char_traitsIcEENS2_9allocatorIcEEEEj, 
                       __ZN2gc3est18ImplicitSchurJtJp1C1ENSt3__110shared_ptrINS0_11FactorGraphEEERKNS0_17FactorJacobianSetERKNS0_9FactorMapERKNS0_11VariableMapE, 
                       __ZN2gc3est18ImplicitSchurJtJp1C2ENSt3__110shared_ptrINS0_11FactorGraphEEERKNS0_17FactorJacobianSetERKNS0_9FactorMapERKNS0_11VariableMapE, 
                       __ZN2gc3est18ImplicitSchurJtJp210createNameERKNSt3__112basic_stringIcNS2_11char_traitsIcEENS2_9allocatorIcEEEE, 
                       __ZN2gc3est18ImplicitSchurJtJp210kernelNameERKNSt3__112basic_stringIcNS2_11char_traitsIcEENS2_9allocatorIcEEEEjb, 
                       __ZN2gc3est18ImplicitSchurJtJp214setTileExtentsEv, __ZN2gc3est18ImplicitSchurJtJp26kernelERKNS_8ScheduleE, 
                       __ZN2gc3est18ImplicitSchurJtJp28findTileERKNSt3__112basic_stringIcNS2_11char_traitsIcEENS2_9allocatorIcEEEEjb, 
                       __ZN2gc3est18ImplicitSchurJtJp2C1ENSt3__110shared_ptrINS0_11FactorGraphEEERKNS0_17FactorJacobianSetERKNS0_11VariableMapERKNS0_14InformationMapERKNS0_9FactorMapE, 
                       __ZN2gc3est18ImplicitSchurJtJp2C2ENSt3__110shared_ptrINS0_11FactorGraphEEERKNS0_17FactorJacobianSetERKNS0_11VariableMapERKNS0_14InformationMapERKNS0_9FactorMapE, 
                       __ZN2gc3est18LinearizationPoint13asSecondOrderEv, __ZN2gc3est18LinearizationPoint15updateVariablesERKNS0_11VariableMapENS_4util10TaggedBoolINS0_11FreeOnlyTagEEENS6_INS0_10RectifyTagEEE, 
                       __ZN2gc3est18LinearizationPoint6createENS0_18eLinearizationTypeERKNS0_25LinearizationPointOptionsERKNSt3__110shared_ptrINS0_11FactorGraphEEE, 
                       __ZN2gc3est18LinearizationPointC2ERKNS0_25LinearizationPointOptionsERKNSt3__110shared_ptrINS0_11FactorGraphEEE, 
                       __ZN2gc3est19BasicFactorOrdering7reorderERKNS0_16VariableGroupSetE, 
                       __ZN2gc3est19BasicFactorOrdering8allocateERKNS0_6FactorERKNS0_16VariableGroupSetE, 
                       __ZN2gc3est19SchurBackSubstitute10createNameERKNSt3__112basic_stringIcNS2_11char_traitsIcEENS2_9allocatorIcEEEE, 
                       __ZN2gc3est19SchurBackSubstitute10kernelNameERKNSt3__112basic_stringIcNS2_11char_traitsIcEENS2_9allocatorIcEEEEj, 
                       __ZN2gc3est19SchurBackSubstitute14setTileExtentsEv, __ZN2gc3est19SchurBackSubstitute6kernelERKNS_8ScheduleE, 
                       __ZN2gc3est19SchurBackSubstitute8findTileERKNSt3__112basic_stringIcNS2_11char_traitsIcEENS2_9allocatorIcEEEEj, 
                       __ZN2gc3est19SchurBackSubstituteC1ENSt3__110shared_ptrINS0_11FactorGraphEEERKNS0_17FactorJacobianSetERKNS0_25SchurEliminatedHessianSetERKNS0_11VariableMapESE_NS0_14InformationMapESE_SE_, 
                       __ZN2gc3est19SchurBackSubstituteC2ENSt3__110shared_ptrINS0_11FactorGraphEEERKNS0_17FactorJacobianSetERKNS0_25SchurEliminatedHessianSetERKNS0_11VariableMapESE_NS0_14InformationMapESE_SE_, 
                       __ZN2gc3est19SparseFactorizationIdEC1Ev, __ZN2gc3est19SparseFactorizationIdEC2Ev, 
                       __ZN2gc3est19SparseFactorizationIdED1Ev, __ZN2gc3est19SparseFactorizationIdED2Ev, 
                       __ZN2gc3est19SparseFactorizationIfEC1Ev, __ZN2gc3est19SparseFactorizationIfEC2Ev, 
                       __ZN2gc3est19SparseFactorizationIfED1Ev, __ZN2gc3est19SparseFactorizationIfED2Ev, 
                       __ZN2gc3est19TrustRegionStrategy6createENS0_24eTrustRegionStrategyTypeENS0_18eLinearizationTypeERKNS1_7OptionsE, 
                       __ZN2gc3est20BitmappedBlockMatrix12resetBuffersEjjRKNS0_18BlockAdjacencyListE, 
                       __ZN2gc3est20BitmappedBlockMatrix5resetENSt3__110shared_ptrINS0_11BlockMatrixEEE, 
                       __ZN2gc3est20BitmappedBlockMatrix6bufferEv, __ZN2gc3est20BitmappedBlockMatrix6createENS0_15BlockMatrixSizeE17loopkit_rt_type_tRKNS0_18BlockAdjacencyListEjj, 
                       __ZN2gc3est20BitmappedBlockMatrix7setZeroEv, __ZN2gc3est20BitmappedBlockMatrixC1ENS0_15BlockMatrixSizeE17loopkit_rt_type_tRKNS0_18BlockAdjacencyListEjj, 
                       __ZN2gc3est20BitmappedBlockMatrixC2ENS0_15BlockMatrixSizeE17loopkit_rt_type_tRKNS0_18BlockAdjacencyListEjj, 
                       __ZN2gc3est20FactorInformationMap13createBuffersE17loopkit_rt_type_tRKNS0_11FactorGraphENS_4util10TaggedBoolINS_17AllocateMemoryTagEEE, 
                       __ZN2gc3est20FactorInformationMap7setTypeE17loopkit_rt_type_t, 
                       __ZN2gc3est20FactorInformationMap8allocateEv, __ZN2gc3est20TrustRegionMinimizer10acceptStepERKNS0_9Minimizer12SolveSummary12IterationLogERKNS0_11VariableMapE, 
                       __ZN2gc3est20TrustRegionMinimizer12setUpOptionsERKNS0_9Minimizer12SolveOptionsE, 
                       __ZN2gc3est20TrustRegionMinimizer19allocateFactoryImplEv, 
                       __ZN2gc3est20TrustRegionMinimizer6createERKNS0_9Minimizer7OptionsERKNSt3__110shared_ptrINS0_7ProblemEEE, 
                       __ZN2gc3est20TrustRegionMinimizer7prepareERKNS0_9Minimizer12SolveOptionsERNS2_12SolveSummary12IterationLogE, 
                       __ZN2gc3est20TrustRegionMinimizer9solveStepERNS0_11VariableMapE, 
                       __ZN2gc3est20loadMinimizerOptionsERKNSt3__14__fs10filesystem4pathERNS0_9Minimizer7OptionsERNS7_12SolveOptionsE, 
                       __ZN2gc3est20saveMinimizerOptionsERKNSt3__14__fs10filesystem4pathERKNS0_9Minimizer7OptionsERKNS7_12SolveOptionsE, 
                       __ZN2gc3est21StandardGaussianNoise6createEv, __ZN2gc3est22EvaluateBatchGradients10createNameERKNSt3__112basic_stringIcNS2_11char_traitsIcEENS2_9allocatorIcEEEE, 
                       __ZN2gc3est22EvaluateBatchGradients14setTileExtentsEv, __ZN2gc3est22EvaluateBatchGradients6kernelERKNS_8ScheduleE, 
                       __ZN2gc3est22EvaluateBatchGradients8findTileERKNSt3__112basic_stringIcNS2_11char_traitsIcEENS2_9allocatorIcEEEEj, 
                       __ZN2gc3est22EvaluateBatchGradientsC1ENSt3__110shared_ptrINS0_11FactorGraphEEERKNS0_17FactorOrderingSetERKNS0_11VariableMapERKNS3_INS_6BufferEEERKNS2_8functionIFNS0_13eJacobianTypeERKNS2_12basic_stringIcNS2_11char_traitsIcEENS2_9allocatorIcEEEESP_EEE, 
                       __ZN2gc3est22EvaluateBatchGradientsC2ENSt3__110shared_ptrINS0_11FactorGraphEEERKNS0_17FactorOrderingSetERKNS0_11VariableMapERKNS3_INS_6BufferEEERKNS2_8functionIFNS0_13eJacobianTypeERKNS2_12basic_stringIcNS2_11char_traitsIcEENS2_9allocatorIcEEEESP_EEE, 
                       __ZN2gc3est22IsotropicGaussianNoise6createE17loopkit_rt_type_tNS_4util10TaggedBoolINS0_14HomogeneousTagEEE, 
                       __ZN2gc3est22IsotropicGaussianNoiseC1E17loopkit_rt_type_tNS_4util10TaggedBoolINS0_14HomogeneousTagEEE, 
                       __ZN2gc3est22IsotropicGaussianNoiseC2E17loopkit_rt_type_tNS_4util10TaggedBoolINS0_14HomogeneousTagEEE, 
                       __ZN2gc3est22VariadicFactorOrdering7reorderERKNS0_16VariableGroupSetE, 
                       __ZN2gc3est22VariadicFactorOrdering8allocateERKNS0_6FactorERKNS0_16VariableGroupSetE, 
                       __ZN2gc3est23SchurEliminatedHessians8allocateE17loopkit_rt_type_tRKNS0_6FactorERKNS0_15FactorJacobiansERKNS0_16VariableGroupSetE, 
                       __ZN2gc3est24AnisotropicGaussianNoise6createE17loopkit_rt_type_tjNS_4util10TaggedBoolINS0_14HomogeneousTagEEE, 
                       __ZN2gc3est24AnisotropicGaussianNoiseC1E17loopkit_rt_type_tjNS_4util10TaggedBoolINS0_14HomogeneousTagEEE, 
                       __ZN2gc3est24AnisotropicGaussianNoiseC2E17loopkit_rt_type_tjNS_4util10TaggedBoolINS0_14HomogeneousTagEEE, 
                       __ZN2gc3est24CompressedRowBlockMatrix12resetBuffersEjjRKNS0_18BlockAdjacencyListE, 
                       __ZN2gc3est24CompressedRowBlockMatrix5resetENSt3__110shared_ptrINS0_11BlockMatrixEEE, 
                       __ZN2gc3est24CompressedRowBlockMatrix6bufferEv, __ZN2gc3est24CompressedRowBlockMatrix6createENS0_15BlockMatrixSizeE17loopkit_rt_type_tRKNS0_18BlockAdjacencyListEjj, 
                       __ZN2gc3est24CompressedRowBlockMatrix7setZeroEv, __ZN2gc3est24CompressedRowBlockMatrixC1ENS0_15BlockMatrixSizeE17loopkit_rt_type_tRKNS0_18BlockAdjacencyListEjj, 
                       __ZN2gc3est24CompressedRowBlockMatrixC2ENS0_15BlockMatrixSizeE17loopkit_rt_type_tRKNS0_18BlockAdjacencyListEjj, 
                       __ZN2gc3est24GradientDescentMinimizer10acceptStepERKNS0_9Minimizer12SolveSummary12IterationLogERKNS0_11VariableMapE, 
                       __ZN2gc3est24GradientDescentMinimizer12setUpOptionsERKNS0_9Minimizer12SolveOptionsE, 
                       __ZN2gc3est24GradientDescentMinimizer6createERKNS0_9Minimizer7OptionsERKNSt3__110shared_ptrINS0_7ProblemEEE, 
                       __ZN2gc3est24GradientDescentMinimizer7prepareERKNS0_9Minimizer12SolveOptionsERNS2_12SolveSummary12IterationLogE, 
                       __ZN2gc3est24GradientDescentMinimizer9solveStepERNS0_11VariableMapE, 
                       __ZN2gc3est24ImplicitSchurInitialize110createNameERKNSt3__112basic_stringIcNS2_11char_traitsIcEENS2_9allocatorIcEEEENS2_8optionalINS0_30eLevenbergMarquardtDampingTypeEEE, 
                       __ZN2gc3est24ImplicitSchurInitialize110kernelNameERKNSt3__112basic_stringIcNS2_11char_traitsIcEENS2_9allocatorIcEEEEj, 
                       __ZN2gc3est24ImplicitSchurInitialize114setTileExtentsEv, __ZN2gc3est24ImplicitSchurInitialize16kernelERKNS_8ScheduleE, 
                       __ZN2gc3est24ImplicitSchurInitialize18findTileERKNSt3__112basic_stringIcNS2_11char_traitsIcEENS2_9allocatorIcEEEEj, 
                       __ZN2gc3est24ImplicitSchurInitialize1C1ENSt3__18optionalINS0_30eLevenbergMarquardtDampingTypeEEENS2_10shared_ptrINS0_11FactorGraphEEERKNS0_17FactorJacobianSetERKNS6_INS_6BufferEEERKNS0_11VariableMapERKNS0_14InformationMapE, 
                       __ZN2gc3est24ImplicitSchurInitialize1C2ENSt3__18optionalINS0_30eLevenbergMarquardtDampingTypeEEENS2_10shared_ptrINS0_11FactorGraphEEERKNS0_17FactorJacobianSetERKNS6_INS_6BufferEEERKNS0_11VariableMapERKNS0_14InformationMapE, 
                       __ZN2gc3est24ImplicitSchurInitialize210createNameERKNSt3__112basic_stringIcNS2_11char_traitsIcEENS2_9allocatorIcEEEE, 
                       __ZN2gc3est24ImplicitSchurInitialize210kernelNameERKNSt3__112basic_stringIcNS2_11char_traitsIcEENS2_9allocatorIcEEEEj, 
                       __ZN2gc3est24ImplicitSchurInitialize214setTileExtentsEv, __ZN2gc3est24ImplicitSchurInitialize26kernelERKNS_8ScheduleE, 
                       __ZN2gc3est24ImplicitSchurInitialize28findTileERKNSt3__112basic_stringIcNS2_11char_traitsIcEENS2_9allocatorIcEEEEj, 
                       __ZN2gc3est24ImplicitSchurInitialize2C1ENSt3__110shared_ptrINS0_11FactorGraphEEERKNS0_17FactorJacobianSetERKNS0_11VariableMapERKNS0_14InformationMapERKNS0_9FactorMapERKNS0_20FactorInformationMapE, 
                       __ZN2gc3est24ImplicitSchurInitialize2C2ENSt3__110shared_ptrINS0_11FactorGraphEEERKNS0_17FactorJacobianSetERKNS0_11VariableMapERKNS0_14InformationMapERKNS0_9FactorMapERKNS0_20FactorInformationMapE, 
                       __ZN2gc3est24ImplicitSchurInitialize310createNameERKNSt3__112basic_stringIcNS2_11char_traitsIcEENS2_9allocatorIcEEEE, 
                       __ZN2gc3est24ImplicitSchurInitialize310kernelNameERKNSt3__112basic_stringIcNS2_11char_traitsIcEENS2_9allocatorIcEEEEj, 
                       __ZN2gc3est24ImplicitSchurInitialize314setTileExtentsEv, __ZN2gc3est24ImplicitSchurInitialize36kernelERKNS_8ScheduleE, 
                       __ZN2gc3est24ImplicitSchurInitialize38findTileERKNSt3__112basic_stringIcNS2_11char_traitsIcEENS2_9allocatorIcEEEEj, 
                       __ZN2gc3est24ImplicitSchurInitialize3C1ENSt3__110shared_ptrINS0_11FactorGraphEEERKNS0_17FactorJacobianSetERKNS0_9FactorMapERKNS0_20FactorInformationMapERKNS0_11VariableMapESH_RKNS0_14InformationMapE, 
                       __ZN2gc3est24ImplicitSchurInitialize3C2ENSt3__110shared_ptrINS0_11FactorGraphEEERKNS0_17FactorJacobianSetERKNS0_9FactorMapERKNS0_20FactorInformationMapERKNS0_11VariableMapESH_RKNS0_14InformationMapE, 
                       __ZN2gc3est25ApplyJacobiPreconditioner10createNameERKNSt3__112basic_stringIcNS2_11char_traitsIcEENS2_9allocatorIcEEEE, 
                       __ZN2gc3est25ApplyJacobiPreconditioner14setTileExtentsEv, 
                       __ZN2gc3est25ApplyJacobiPreconditioner6kernelERKNS_8ScheduleE, 
                       __ZN2gc3est25ApplyJacobiPreconditioner8findTileERKNSt3__112basic_stringIcNS2_11char_traitsIcEENS2_9allocatorIcEEEE, 
                       __ZN2gc3est25ApplyJacobiPreconditionerC1ERKNSt3__112basic_stringIcNS2_11char_traitsIcEENS2_9allocatorIcEEEERKNS0_11VariableMapESD_SD_, 
                       __ZN2gc3est25ApplyJacobiPreconditionerC2ERKNSt3__112basic_stringIcNS2_11char_traitsIcEENS2_9allocatorIcEEEERKNS0_11VariableMapESD_SD_, 
                       __ZN2gc3est25SchurEliminatedHessianSet10reallocateEv, __ZN2gc3est25SchurEliminatedHessianSet8allocateE17loopkit_rt_type_tRKNS0_17FactorJacobianSetERKNS0_11FactorGraphE, 
                       __ZN2gc3est28ImplicitSchurBackSubstitute110createNameERKNSt3__112basic_stringIcNS2_11char_traitsIcEENS2_9allocatorIcEEEE, 
                       __ZN2gc3est28ImplicitSchurBackSubstitute110kernelNameERKNSt3__112basic_stringIcNS2_11char_traitsIcEENS2_9allocatorIcEEEE, 
                       __ZN2gc3est28ImplicitSchurBackSubstitute114setTileExtentsEv, 
                       __ZN2gc3est28ImplicitSchurBackSubstitute16kernelERKNS_8ScheduleE, 
                       __ZN2gc3est28ImplicitSchurBackSubstitute18findTileERKNSt3__112basic_stringIcNS2_11char_traitsIcEENS2_9allocatorIcEEEE, 
                       __ZN2gc3est28ImplicitSchurBackSubstitute1C1ENSt3__110shared_ptrINS0_11FactorGraphEEERKNS0_17FactorJacobianSetERKNS0_11VariableMapERKNS0_9FactorMapE, 
                       __ZN2gc3est28ImplicitSchurBackSubstitute1C2ENSt3__110shared_ptrINS0_11FactorGraphEEERKNS0_17FactorJacobianSetERKNS0_11VariableMapERKNS0_9FactorMapE, 
                       __ZN2gc3est28ImplicitSchurBackSubstitute210createNameERKNSt3__112basic_stringIcNS2_11char_traitsIcEENS2_9allocatorIcEEEE, 
                       __ZN2gc3est28ImplicitSchurBackSubstitute210kernelNameERKNSt3__112basic_stringIcNS2_11char_traitsIcEENS2_9allocatorIcEEEE, 
                       __ZN2gc3est28ImplicitSchurBackSubstitute214setTileExtentsEv, 
                       __ZN2gc3est28ImplicitSchurBackSubstitute26kernelERKNS_8ScheduleE, 
                       __ZN2gc3est28ImplicitSchurBackSubstitute28findTileERKNSt3__112basic_stringIcNS2_11char_traitsIcEENS2_9allocatorIcEEEE, 
                       __ZN2gc3est28ImplicitSchurBackSubstitute2C1ENSt3__110shared_ptrINS0_11FactorGraphEEERKNS0_11VariableMapERKNS0_14InformationMapES8_S8_, 
                       __ZN2gc3est28ImplicitSchurBackSubstitute2C2ENSt3__110shared_ptrINS0_11FactorGraphEEERKNS0_11VariableMapERKNS0_14InformationMapES8_S8_, 
                       __ZN2gc3est30ApplyAdditiveLMDampingExplicit10createNameERKNSt3__112basic_stringIcNS2_11char_traitsIcEENS2_9allocatorIcEEEE, 
                       __ZN2gc3est30ApplyAdditiveLMDampingExplicit14setTileExtentsEv, 
                       __ZN2gc3est30ApplyAdditiveLMDampingExplicit6kernelERKNS_8ScheduleE, 
                       __ZN2gc3est30ApplyAdditiveLMDampingExplicit8findTileEj, __ZN2gc3est30ApplyAdditiveLMDampingExplicitC1ERKNS0_11FactorGraphERKNSt3__110shared_ptrINS_6BufferEEERNS0_16BlockMatrixArrayE, 
                       __ZN2gc3est30ApplyAdditiveLMDampingExplicitC2ERKNS0_11FactorGraphERKNSt3__110shared_ptrINS_6BufferEEERNS0_16BlockMatrixArrayE, 
                       __ZN2gc3est30ApplyAdditiveLMDampingImplicit10createNameERKNSt3__112basic_stringIcNS2_11char_traitsIcEENS2_9allocatorIcEEEE, 
                       __ZN2gc3est30ApplyAdditiveLMDampingImplicit14setTileExtentsEv, 
                       __ZN2gc3est30ApplyAdditiveLMDampingImplicit6kernelERKNS_8ScheduleE, 
                       __ZN2gc3est30ApplyAdditiveLMDampingImplicit8findTileERKNSt3__112basic_stringIcNS2_11char_traitsIcEENS2_9allocatorIcEEEE, 
                       __ZN2gc3est30ApplyAdditiveLMDampingImplicitC1ERKNSt3__112basic_stringIcNS2_11char_traitsIcEENS2_9allocatorIcEEEERKNS0_11VariableMapERKNS2_10shared_ptrINS_6BufferEEESD_, 
                       __ZN2gc3est30ApplyAdditiveLMDampingImplicitC2ERKNSt3__112basic_stringIcNS2_11char_traitsIcEENS2_9allocatorIcEEEERKNS0_11VariableMapERKNS2_10shared_ptrINS_6BufferEEESD_, 
                       __ZN2gc3est30ApplyBlockJacobiPreconditioner10createNameERKNSt3__112basic_stringIcNS2_11char_traitsIcEENS2_9allocatorIcEEEE, 
                       __ZN2gc3est30ApplyBlockJacobiPreconditioner14setTileExtentsEv, 
                       __ZN2gc3est30ApplyBlockJacobiPreconditioner6kernelERKNS_8ScheduleE, 
                       __ZN2gc3est30ApplyBlockJacobiPreconditioner8findTileERKNSt3__112basic_stringIcNS2_11char_traitsIcEENS2_9allocatorIcEEEE, 
                       __ZN2gc3est30ApplyBlockJacobiPreconditionerC1ERKNSt3__112basic_stringIcNS2_11char_traitsIcEENS2_9allocatorIcEEEERKNS0_11VariableMapERKNS0_14InformationMapESD_, 
                       __ZN2gc3est30ApplyBlockJacobiPreconditionerC2ERKNSt3__112basic_stringIcNS2_11char_traitsIcEENS2_9allocatorIcEEEERKNS0_11VariableMapERKNS0_14InformationMapESD_, 
                       __ZN2gc3est30createLeastSquaresLossFunctionENSt3__112basic_stringIcNS1_11char_traitsIcEENS1_9allocatorIcEEEENS1_10shared_ptrINS0_8BoxMinusEEENS8_INS0_10NoiseModelEEE, 
                       __ZN2gc3est32BatchGradientsLinearizationPoint12scheduleImplERKNS_8ScheduleE, 
                       __ZN2gc3est32BatchGradientsLinearizationPoint15updateOrderingsEv, 
                       __ZN2gc3est32BatchGradientsLinearizationPoint16negativeGradientEv, 
                       __ZN2gc3est32BatchGradientsLinearizationPoint19allocateFactoryImplEv, 
                       __ZN2gc3est32BatchGradientsLinearizationPoint6createERKNS0_25LinearizationPointOptionsERKNSt3__110shared_ptrINS0_11FactorGraphEEE, 
                       __ZN2gc3est32BatchGradientsLinearizationPoint9linearizeEv, 
                       __ZN2gc3est32BatchGradientsLinearizationPointC1ERKNS0_25LinearizationPointOptionsERKNSt3__110shared_ptrINS0_11FactorGraphEEE, 
                       __ZN2gc3est32BatchGradientsLinearizationPointC2ERKNS0_25LinearizationPointOptionsERKNSt3__110shared_ptrINS0_11FactorGraphEEE, 
                       __ZN2gc3est33ApplyAdditiveLMDampingToDiagonals10createNameERKNSt3__112basic_stringIcNS2_11char_traitsIcEENS2_9allocatorIcEEEE, 
                       __ZN2gc3est33ApplyAdditiveLMDampingToDiagonals14setTileExtentsEv, 
                       __ZN2gc3est33ApplyAdditiveLMDampingToDiagonals6kernelERKNS_8ScheduleE, 
                       __ZN2gc3est33ApplyAdditiveLMDampingToDiagonals8findTileERKNSt3__112basic_stringIcNS2_11char_traitsIcEENS2_9allocatorIcEEEE, 
                       __ZN2gc3est33ApplyAdditiveLMDampingToDiagonalsC1ERKNSt3__112basic_stringIcNS2_11char_traitsIcEENS2_9allocatorIcEEEERKNS2_10shared_ptrINS_6BufferEEERKNS0_11VariableMapERKNS0_14InformationMapE, 
                       __ZN2gc3est33ApplyAdditiveLMDampingToDiagonalsC2ERKNSt3__112basic_stringIcNS2_11char_traitsIcEENS2_9allocatorIcEEEERKNS2_10shared_ptrINS_6BufferEEERKNS0_11VariableMapERKNS0_14InformationMapE, 
                       __ZN2gc3est33ExplicitHessianLinearizationPoint12applyDampingENS0_30eLevenbergMarquardtDampingTypeEd, 
                       __ZN2gc3est33ExplicitHessianLinearizationPoint12clearDampingEv, 
                       __ZN2gc3est33ExplicitHessianLinearizationPoint12scheduleImplERKNS_8ScheduleE, 
                       __ZN2gc3est33ExplicitHessianLinearizationPoint15hessianMultiplyERKNS0_11VariableMapERS2_, 
                       __ZN2gc3est33ExplicitHessianLinearizationPoint15updateOrderingsEv, 
                       __ZN2gc3est33ExplicitHessianLinearizationPoint15updateVariablesERKNS0_11VariableMapENS_4util10TaggedBoolINS0_11FreeOnlyTagEEENS6_INS0_10RectifyTagEEE, 
                       __ZN2gc3est33ExplicitHessianLinearizationPoint16negativeGradientEv, 
                       __ZN2gc3est33ExplicitHessianLinearizationPoint19allocateFactoryImplEv, 
                       __ZN2gc3est33ExplicitHessianLinearizationPoint6createERKNS0_25LinearizationPointOptionsERKNSt3__110shared_ptrINS0_11FactorGraphEEE, 
                       __ZN2gc3est33ExplicitHessianLinearizationPoint9linearizeEv, 
                       __ZN2gc3est33ExplicitHessianLinearizationPointC1ERKNS0_25LinearizationPointOptionsERKNSt3__110shared_ptrINS0_11FactorGraphEEE, 
                       __ZN2gc3est33ExplicitHessianLinearizationPointC2ERKNS0_25LinearizationPointOptionsERKNSt3__110shared_ptrINS0_11FactorGraphEEE, 
                       __ZN2gc3est33ImplicitHessianLinearizationPoint12applyDampingENS0_30eLevenbergMarquardtDampingTypeEd, 
                       __ZN2gc3est33ImplicitHessianLinearizationPoint12clearDampingEv, 
                       __ZN2gc3est33ImplicitHessianLinearizationPoint12scheduleImplERKNS_8ScheduleE, 
                       __ZN2gc3est33ImplicitHessianLinearizationPoint15hessianMultiplyERKNS0_11VariableMapERS2_, 
                       __ZN2gc3est33ImplicitHessianLinearizationPoint15updateOrderingsEv, 
                       __ZN2gc3est33ImplicitHessianLinearizationPoint15updateVariablesERKNS0_11VariableMapENS_4util10TaggedBoolINS0_11FreeOnlyTagEEENS6_INS0_10RectifyTagEEE, 
                       __ZN2gc3est33ImplicitHessianLinearizationPoint16negativeGradientEv, 
                       __ZN2gc3est33ImplicitHessianLinearizationPoint19allocateFactoryImplEv, 
                       __ZN2gc3est33ImplicitHessianLinearizationPoint6createERKNS0_25LinearizationPointOptionsERKNSt3__110shared_ptrINS0_11FactorGraphEEE, 
                       __ZN2gc3est33ImplicitHessianLinearizationPoint9linearizeEv, 
                       __ZN2gc3est33ImplicitHessianLinearizationPointC1ERKNS0_25LinearizationPointOptionsERKNSt3__110shared_ptrINS0_11FactorGraphEEE, 
                       __ZN2gc3est33ImplicitHessianLinearizationPointC2ERKNS0_25LinearizationPointOptionsERKNSt3__110shared_ptrINS0_11FactorGraphEEE, 
                       __ZN2gc3est36ApplyMultiplicativeLMDampingExplicit10createNameERKNSt3__112basic_stringIcNS2_11char_traitsIcEENS2_9allocatorIcEEEE, 
                       __ZN2gc3est36ApplyMultiplicativeLMDampingExplicit14setTileExtentsEv, 
                       __ZN2gc3est36ApplyMultiplicativeLMDampingExplicit6kernelERKNS_8ScheduleE, 
                       __ZN2gc3est36ApplyMultiplicativeLMDampingExplicit8findTileEj, 
                       __ZN2gc3est36ApplyMultiplicativeLMDampingExplicitC1ERKNS0_11FactorGraphERKNSt3__110shared_ptrINS_6BufferEEERNS0_16BlockMatrixArrayE, 
                       __ZN2gc3est36ApplyMultiplicativeLMDampingExplicitC2ERKNS0_11FactorGraphERKNSt3__110shared_ptrINS_6BufferEEERNS0_16BlockMatrixArrayE, 
                       __ZN2gc3est36ApplyMultiplicativeLMDampingImplicit10createNameERKNSt3__112basic_stringIcNS2_11char_traitsIcEENS2_9allocatorIcEEEE, 
                       __ZN2gc3est36ApplyMultiplicativeLMDampingImplicit14setTileExtentsEv, 
                       __ZN2gc3est36ApplyMultiplicativeLMDampingImplicit6kernelERKNS_8ScheduleE, 
                       __ZN2gc3est36ApplyMultiplicativeLMDampingImplicit8findTileERKNSt3__112basic_stringIcNS2_11char_traitsIcEENS2_9allocatorIcEEEE, 
                       __ZN2gc3est36ApplyMultiplicativeLMDampingImplicitC1ERKNSt3__112basic_stringIcNS2_11char_traitsIcEENS2_9allocatorIcEEEERKNS0_11VariableMapERKNS2_10shared_ptrINS_6BufferEEESD_SD_, 
                       __ZN2gc3est36ApplyMultiplicativeLMDampingImplicitC2ERKNSt3__112basic_stringIcNS2_11char_traitsIcEENS2_9allocatorIcEEEERKNS0_11VariableMapERKNS2_10shared_ptrINS_6BufferEEESD_SD_, 
                       __ZN2gc3est39ApplyMultiplicativeLMDampingToDiagonals10createNameERKNSt3__112basic_stringIcNS2_11char_traitsIcEENS2_9allocatorIcEEEE, 
                       __ZN2gc3est39ApplyMultiplicativeLMDampingToDiagonals14setTileExtentsEv, 
                       __ZN2gc3est39ApplyMultiplicativeLMDampingToDiagonals6kernelERKNS_8ScheduleE, 
                       __ZN2gc3est39ApplyMultiplicativeLMDampingToDiagonals8findTileERKNSt3__112basic_stringIcNS2_11char_traitsIcEENS2_9allocatorIcEEEE, 
                       __ZN2gc3est39ApplyMultiplicativeLMDampingToDiagonalsC1ERKNSt3__112basic_stringIcNS2_11char_traitsIcEENS2_9allocatorIcEEEERKNS2_10shared_ptrINS_6BufferEEERKNS0_11VariableMapERKNS0_14InformationMapE, 
                       __ZN2gc3est39ApplyMultiplicativeLMDampingToDiagonalsC2ERKNSt3__112basic_stringIcNS2_11char_traitsIcEENS2_9allocatorIcEEEERKNS2_10shared_ptrINS_6BufferEEERKNS0_11VariableMapERKNS0_14InformationMapE, 
                       __ZN2gc3est3SE319allocateFactoryImplEv, __ZN2gc3est3SE36createENSt3__110shared_ptrINS_6BufferEEERKNS2_12basic_stringIcNS2_11char_traitsIcEENS2_9allocatorIcEEEENS_11eHandednessE, 
                       __ZN2gc3est3SE37rectifyEv, __ZN2gc3est3SE3C1ENSt3__110shared_ptrINS_6BufferEEERKNS2_12basic_stringIcNS2_11char_traitsIcEENS2_9allocatorIcEEEENS_11eHandednessE, 
                       __ZN2gc3est3SE3C2ENSt3__110shared_ptrINS_6BufferEEERKNS2_12basic_stringIcNS2_11char_traitsIcEENS2_9allocatorIcEEEENS_11eHandednessE, 
                       __ZN2gc3est3SO312scheduleImplERKNS_8ScheduleE, __ZN2gc3est3SO313fromLogarithmENSt3__110shared_ptrINS_6BufferEEE, 
                       __ZN2gc3est3SO319allocateFactoryImplEv, __ZN2gc3est3SO36createENSt3__110shared_ptrINS_6BufferEEERKNS2_12basic_stringIcNS2_11char_traitsIcEENS2_9allocatorIcEEEENS_11eHandednessE, 
                       __ZN2gc3est3SO37rectifyEv, __ZN2gc3est3SO3C1ENSt3__110shared_ptrINS_6BufferEEERKNS2_12basic_stringIcNS2_11char_traitsIcEENS2_9allocatorIcEEEENS_11eHandednessE, 
                       __ZN2gc3est3SO3C2ENSt3__110shared_ptrINS_6BufferEEERKNS2_12basic_stringIcNS2_11char_traitsIcEENS2_9allocatorIcEEEENS_11eHandednessE, 
                       __ZN2gc3est4Adam12scheduleImplERKNS_8ScheduleE, __ZN2gc3est4Adam16updateParametersERKNS0_11VariableMapERS2_, 
                       __ZN2gc3est4Adam19allocateFactoryImplEv, __ZN2gc3est4Adam6createERKNS0_9Minimizer7OptionsERKNSt3__110shared_ptrINS0_7ProblemEEE, 
                       __ZN2gc3est51ExplicitHessianLinearizationPointLevenbergMarquardt34extractHessianDiagonalInfinityNormEPNS0_33ExplicitHessianLinearizationPointE, 
                       __ZN2gc3est51ExplicitHessianLinearizationPointLevenbergMarquardt6createERKNS0_19TrustRegionStrategy7OptionsE, 
                       __ZN2gc3est51ImplicitHessianLinearizationPointLevenbergMarquardt34extractHessianDiagonalInfinityNormEPNS0_33ImplicitHessianLinearizationPointE, 
                       __ZN2gc3est51ImplicitHessianLinearizationPointLevenbergMarquardt6createERKNS0_19TrustRegionStrategy7OptionsE, 
                       __ZN2gc3est53ExplicitHessianLinearizationPointJacobiPreconditioner14initializeImplEPNS0_33ExplicitHessianLinearizationPointE, 
                       __ZN2gc3est53ExplicitHessianLinearizationPointJacobiPreconditioner6createERKNS0_11FactorGraphE, 
                       __ZN2gc3est53ImplicitHessianLinearizationPointJacobiPreconditioner14initializeImplEPNS0_33ImplicitHessianLinearizationPointE, 
                       __ZN2gc3est53ImplicitHessianLinearizationPointJacobiPreconditioner6createERKNS0_11FactorGraphE, 
                       __ZN2gc3est58ExplicitHessianLinearizationPointBlockJacobiPreconditioner14initializeImplEPNS0_33ExplicitHessianLinearizationPointE, 
                       __ZN2gc3est58ExplicitHessianLinearizationPointBlockJacobiPreconditioner19allocateFactoryImplEv, 
                       __ZN2gc3est58ExplicitHessianLinearizationPointBlockJacobiPreconditioner6createERKNS0_11FactorGraphE, 
                       __ZN2gc3est58ExplicitHessianLinearizationPointBlockJacobiPreconditioner9applyImplEPNS0_33ExplicitHessianLinearizationPointERKNS0_11VariableMapERS4_, 
                       __ZN2gc3est58ImplicitHessianLinearizationPointBlockJacobiPreconditioner14initializeImplEPNS0_33ImplicitHessianLinearizationPointE, 
                       __ZN2gc3est58ImplicitHessianLinearizationPointBlockJacobiPreconditioner19allocateFactoryImplEv, 
                       __ZN2gc3est58ImplicitHessianLinearizationPointBlockJacobiPreconditioner6createERKNS0_11FactorGraphE, 
                       __ZN2gc3est58ImplicitHessianLinearizationPointBlockJacobiPreconditioner9applyImplEPNS0_33ImplicitHessianLinearizationPointERKNS0_11VariableMapERS4_, 
                       __ZN2gc3est6Factor12scheduleImplERKNS_8ScheduleE, __ZN2gc3est6Factor13assignBuffersERNS0_10FactorDataENS_4util10TaggedBoolINS_11DeepCopyTagEEE, 
                       __ZN2gc3est6Factor13assignBuffersEjjPjS2_NS_4util10TaggedBoolINS_11DeepCopyTagEEE, 
                       __ZN2gc3est6Factor19allocateFactoryImplEv, __ZN2gc3est6Factor20setContractedBuffersEONS0_13FactorBuffersE, 
                       __ZN2gc3est6Factor22updateArgumentGroupingERKNS0_16VariableGroupSetE, 
                       __ZN2gc3est6Factor4costEv, __ZN2gc3est6Factor6createENSt3__110shared_ptrINS0_12CostFunctionEEENS2_4pairINS3_INS0_8VariableEEENS2_6vectorIS8_NS2_9allocatorIS8_EEEEEERKNS2_12basic_stringIcNS2_11char_traitsIcEENSA_IcEEEE, 
                       __ZN2gc3est6Factor6createENSt3__110shared_ptrINS0_13ModelFunctionEEENS3_INS0_12LossFunctionEEENS2_4pairINS3_INS0_8VariableEEENS2_6vectorISA_NS2_9allocatorISA_EEEEEERKNS2_12basic_stringIcNS2_11char_traitsIcEENSC_IcEEEE, 
                       __ZN2gc3est6Factor8evaluateENS_4util10TaggedBoolINS0_12RecomputeTagEEE, 
                       __ZN2gc3est6FactorC1ENSt3__110shared_ptrINS0_12CostFunctionEEENS2_6vectorINS3_INS0_8VariableEEENS2_9allocatorIS8_EEEERKNS2_12basic_stringIcNS2_11char_traitsIcEENS9_IcEEEE, 
                       __ZN2gc3est6FactorC2ENSt3__110shared_ptrINS0_12CostFunctionEEENS2_6vectorINS3_INS0_8VariableEEENS2_9allocatorIS8_EEEERKNS2_12basic_stringIcNS2_11char_traitsIcEENS9_IcEEEE, 
                       __ZN2gc3est6Scalar6createENSt3__110shared_ptrINS_6BufferEEERKNS2_12basic_stringIcNS2_11char_traitsIcEENS2_9allocatorIcEEEE, 
                       __ZN2gc3est6ScalarC1ENSt3__110shared_ptrINS_6BufferEEERKNS2_12basic_stringIcNS2_11char_traitsIcEENS2_9allocatorIcEEEE, 
                       __ZN2gc3est6ScalarC2ENSt3__110shared_ptrINS_6BufferEEERKNS2_12basic_stringIcNS2_11char_traitsIcEENS2_9allocatorIcEEEE, 
                       __ZN2gc3est6Vector6createENSt3__110shared_ptrINS_6BufferEEERKNS2_12basic_stringIcNS2_11char_traitsIcEENS2_9allocatorIcEEEE, 
                       __ZN2gc3est6VectorC1ENSt3__110shared_ptrINS_6BufferEEERKNS2_12basic_stringIcNS2_11char_traitsIcEENS2_9allocatorIcEEEE, 
                       __ZN2gc3est6VectorC2ENSt3__110shared_ptrINS_6BufferEEERKNS2_12basic_stringIcNS2_11char_traitsIcEENS2_9allocatorIcEEEE, 
                       __ZN2gc3est6detail17FunctionEvaluator8evaluateERKNSt3__18functionIFNS_4lang8VariableERKNS3_6vectorINS5_13ConstVariableENS3_9allocatorIS8_EEEEEEESD_, 
                       __ZN2gc3est6detail7makeWRTERKNSt3__16vectorINS_4lang13ConstVariableENS2_9allocatorIS5_EEEERKNS3_IjNS6_IjEEEE, 
                       __ZN2gc3est7InvertM10createNameERKNSt3__112basic_stringIcNS2_11char_traitsIcEENS2_9allocatorIcEEEE, 
                       __ZN2gc3est7InvertM14setTileExtentsEv, __ZN2gc3est7InvertM6kernelERKNS_8ScheduleE, 
                       __ZN2gc3est7InvertM8findTileERKNSt3__112basic_stringIcNS2_11char_traitsIcEENS2_9allocatorIcEEEE, 
                       __ZN2gc3est7InvertMC1ERKNSt3__112basic_stringIcNS2_11char_traitsIcEENS2_9allocatorIcEEEERKNS0_11VariableMapESD_, 
                       __ZN2gc3est7InvertMC2ERKNSt3__112basic_stringIcNS2_11char_traitsIcEENS2_9allocatorIcEEEERKNS0_11VariableMapESD_, 
                       __ZN2gc3est7Problem11resetFactorERKNSt3__112basic_stringIcNS2_11char_traitsIcEENS2_9allocatorIcEEEERNS0_10FactorDataENS_4util10TaggedBoolINS_11DeepCopyTagEEE, 
                       __ZN2gc3est7Problem13resetVariableERKNSt3__112basic_stringIcNS2_11char_traitsIcEENS2_9allocatorIcEEEE17loopkit_rt_type_tPvjNS_4util10TaggedBoolINS_11DeepCopyTagEEE, 
                       __ZN2gc3est7Problem15resetNoiseModelERKNSt3__112basic_stringIcNS2_11char_traitsIcEENS2_9allocatorIcEEEE17loopkit_rt_type_tPv, 
                       __ZN2gc3est7Problem16buildFactorGraphERKNS0_18ProblemDescriptionE, 
                       __ZN2gc3est7Problem19allocateFactoryImplEv, __ZN2gc3est7Problem6createENSt3__110shared_ptrINS0_11FactorGraphEEE, 
                       __ZN2gc3est7Problem6createERKNS0_18ProblemDescriptionE, __ZN2gc3est8Variable11resetBufferE17loopkit_rt_type_tPvjNS_4util10TaggedBoolINS_11DeepCopyTagEEE, 
                       __ZN2gc3est8Variable11resetBufferEPvjNS_4util10TaggedBoolINS_11DeepCopyTagEEE, 
                       __ZN2gc3est8Variable12scheduleImplERKNS_8ScheduleE, __ZN2gc3est8Variable19allocateFactoryImplEv, 
                       __ZN2gc3est8Variable6bufferEv, __ZN2gc3est8Variable6updateENSt3__110shared_ptrINS_6BufferEEE, 
                       __ZN2gc3est8VariableC2ENSt3__110shared_ptrINS_6BufferEEERKNS2_12basic_stringIcNS2_11char_traitsIcEENS2_9allocatorIcEEEE, 
                       __ZN2gc3est9BufferMap13createBuffersERKS1_NS_4util10TaggedBoolINS_17AllocateMemoryTagEEE, 
                       __ZN2gc3est9BufferMap4copyERKS1_NS_4util10TaggedBoolINS_11DeepCopyTagEEE, 
                       __ZN2gc3est9BufferMap4fillEd, __ZN2gc3est9BufferMap5clearEv, 
                       __ZN2gc3est9DenseLDLtIdE5solveEiPdS3_Pi, __ZN2gc3est9DenseLDLtIdE9factorizeEiPdPi, 
                       __ZN2gc3est9DenseLDLtIfE5solveEiPfS3_Pi, __ZN2gc3est9DenseLDLtIfE9factorizeEiPfPi, 
                       __ZN2gc3est9FactorMap13createBuffersE17loopkit_rt_type_tRKNS0_11FactorGraphENS_4util10TaggedBoolINS_17AllocateMemoryTagEEE, 
                       __ZN2gc3est9FactorMap7setTypeE17loopkit_rt_type_t, __ZN2gc3est9FactorMap8allocateEv, 
                       __ZN2gc3est9Minimizer13updateFactorsERKNSt3__112basic_stringIcNS2_11char_traitsIcEENS2_9allocatorIcEEEERKNS2_8functionIFbRNS0_18FactorBufferEditorEEEE, 
                       __ZN2gc3est9Minimizer5solveERKNS1_12SolveOptionsENS_4util10TaggedBoolINS0_16RecordTimingsTagEEERKNS0_17IterationCallbackERKNS0_20TerminationConditionE, 
                       __ZN2gc3est9Minimizer6createERKNS1_7OptionsERKNSt3__110shared_ptrINS0_7ProblemEEE, 
                       __ZN2gc3est9MinimizerC2ERKNS1_7OptionsERKNSt3__110shared_ptrINS0_7ProblemEEE, 
                       __ZN2gc3estaaEONSt3__18functionIFbRKNS0_8VariableEEEES8_, 
                       __ZN2gc3estlsERNSt3__113basic_ostreamIcNS1_11char_traitsIcEEEERKNS0_9BufferMapE, 
                       __ZN2gc3estooEONSt3__18functionIFbRKNS0_8VariableEEEES8_, 
                       __ZN2gc3expENS_4ExprE, __ZN2gc3logENS_4ExprE, __ZN2gc3maxENS_4ExprES0_, 
                       __ZN2gc3minENS_4ExprES0_, __ZN2gc3ops10AutoDiffOp8backpropENSt3__16vectorINS0_3VarENS2_9allocatorIS4_EEEE, 
                       __ZN2gc3ops11dumpOpGraphERKNSt3__112basic_stringIcNS1_11char_traitsIcEENS1_9allocatorIcEEEERKNS0_5GraphERKNS0_18DumpOpGraphOptionsE, 
                       __ZN2gc3ops11dumpOpGraphERKNSt3__14__fs10filesystem4pathERKNS0_5GraphERKNS0_18DumpOpGraphOptionsE, 
                       __ZN2gc3ops12GradientTape4stopEv, __ZN2gc3ops12GradientTape5pauseEv, 
                       __ZN2gc3ops12GradientTape5startEv, __ZN2gc3ops12GradientTape5watchENS0_3VarE, 
                       __ZN2gc3ops12GradientTape6resumeEv, __ZN2gc3ops12GradientTape8instanceEv, 
                       __ZN2gc3ops12GradientTape9gradientsENS0_3VarENSt3__16vectorIS2_NS3_9allocatorIS2_EEEE, 
                       __ZN2gc3ops12GradientTape9gradientsENS0_3VarES2_, __ZN2gc3ops12GraphManager11activeGraphEv, 
                       __ZN2gc3ops12GraphManager14hasActiveGraphEv, __ZN2gc3ops12GraphManager5startERKNSt3__112basic_stringIcNS2_11char_traitsIcEENS2_9allocatorIcEEEE, 
                       __ZN2gc3ops12GraphManager7consumeEv, __ZN2gc3ops12GraphManager8instanceEv, 
                       __ZN2gc3ops18DumpOpGraphOptions14dumpEverythingEv, __ZN2gc3ops18ScopedGradientTape4stopEv, 
                       __ZN2gc3ops18ScopedGradientTape5watchENS0_3VarE, __ZN2gc3ops18ScopedGradientTapeC1Ev, 
                       __ZN2gc3ops18ScopedGradientTapeC2Ev, __ZN2gc3ops18ScopedGradientTapeD1Ev, 
                       __ZN2gc3ops18ScopedGradientTapeD2Ev, __ZN2gc3ops2Op5setupENSt3__16vectorINS0_3VarENS2_9allocatorIS4_EEEE, 
                       __ZN2gc3ops3Var4copyES1_, __ZN2gc3ops3Var4pushENSt3__110shared_ptrINS0_6OpBaseEEE, 
                       __ZN2gc3ops3Var6assignES1_, __ZN2gc3ops3VarC1ENSt3__110shared_ptrINS0_6OpBaseEEE, 
                       __ZN2gc3ops3VarC1ENSt3__110shared_ptrINS_6BufferEEE, __ZN2gc3ops3VarC1ENSt3__110shared_ptrINS_6BufferEEENS3_INS0_6OpBaseEEE, 
                       __ZN2gc3ops3VarC2ENSt3__110shared_ptrINS0_6OpBaseEEE, __ZN2gc3ops3VarC2ENSt3__110shared_ptrINS_6BufferEEE, 
                       __ZN2gc3ops3VarC2ENSt3__110shared_ptrINS_6BufferEEENS3_INS0_6OpBaseEEE, 
                       __ZN2gc3ops3VarmIES1_, __ZN2gc3ops3VarpLES1_, __ZN2gc3ops3VarppEv, 
                       __ZN2gc3ops4swapERNS0_3VarES2_, __ZN2gc3ops5Graph3opsENS0_3VarE, 
                       __ZN2gc3ops5Graph4pushENS0_3VarENSt3__110shared_ptrINS0_6OpBaseEEE, 
                       __ZN2gc3ops5Graph7addNodeENSt3__110shared_ptrINS0_6OpBaseEEE, 
                       __ZN2gc3ops5Graph7addNodeENSt3__110shared_ptrINS0_6OpBaseEEENS2_6vectorINS0_3VarENS2_9allocatorIS7_EEEE, 
                       __ZN2gc3ops5Graph8addChildENSt3__110shared_ptrINS0_6OpBaseEEES5_, 
                       __ZN2gc3ops6MatMul6createENS0_3VarES2_, __ZN2gc3ops6MatMul6kernelERKNS_8ScheduleE, 
                       __ZN2gc3ops6MatMul8backpropENSt3__16vectorINS0_3VarENS2_9allocatorIS4_EEEE, 
                       __ZN2gc3ops6MatMulC1ERKNSt3__112basic_stringIcNS2_11char_traitsIcEENS2_9allocatorIcEEEE, 
                       __ZN2gc3ops6MatMulC2ERKNSt3__112basic_stringIcNS2_11char_traitsIcEENS2_9allocatorIcEEEE, 
                       __ZN2gc3ops6Module15generateOutputsENSt3__16vectorINS_15eLibraryOutputsENS2_9allocatorIS4_EEEE, 
                       __ZN2gc3ops6Module7executeERKNSt3__112basic_stringIcNS2_11char_traitsIcEENS2_9allocatorIcEEEE, 
                       __ZN2gc3ops6Module8functionERKNSt3__112basic_stringIcNS2_11char_traitsIcEENS2_9allocatorIcEEEENS2_8functionIFvvEEE, 
                       __ZN2gc3ops6Module8scheduleERKNS_8ScheduleE, __ZN2gc3ops6Module8scheduleEv, 
                       __ZN2gc3ops6ModuleC1ERKNSt3__112basic_stringIcNS2_11char_traitsIcEENS2_9allocatorIcEEEE, 
                       __ZN2gc3ops6ModuleC2ERKNSt3__112basic_stringIcNS2_11char_traitsIcEENS2_9allocatorIcEEEE, 
                       __ZN2gc3ops6ModuleD1Ev, __ZN2gc3ops6ModuleD2Ev, __ZN2gc3ops6OpBase16declareConstantsENSt3__16vectorINS2_10shared_ptrINS_6BufferEEENS2_9allocatorIS6_EEEE, 
                       __ZN2gc3ops6OpBaseC2ERKNSt3__112basic_stringIcNS2_11char_traitsIcEENS2_9allocatorIcEEEE, 
                       __ZN2gc3ops8Function7executeEv, __ZN2gc3ops8FunctionC1ERKNSt3__112basic_stringIcNS2_11char_traitsIcEENS2_9allocatorIcEEEENS2_8functionIFvvEEE, 
                       __ZN2gc3ops8FunctionC2ERKNSt3__112basic_stringIcNS2_11char_traitsIcEENS2_9allocatorIcEEEENS2_8functionIFvvEEE, 
                       __ZN2gc3opslsERNSt3__113basic_ostreamIcNS1_11char_traitsIcEEEERKNS0_6ModuleE, 
                       __ZN2gc3powENS_4ExprES0_, __ZN2gc3sinENS_4ExprE, __ZN2gc3tanENS_4ExprE, 
                       __ZN2gc4BoolEv, __ZN2gc4Expr4typeEv, __ZN2gc4ExprC1ENS_9float16_tE, 
                       __ZN2gc4ExprC1ERK17loopkit_rt_type_t, __ZN2gc4ExprC1ERKNSt3__112basic_stringIcNS1_11char_traitsIcEENS1_9allocatorIcEEEE, 
                       __ZN2gc4ExprC1Ea, __ZN2gc4ExprC1Ed, __ZN2gc4ExprC1Ef, __ZN2gc4ExprC1Eh, 
                       __ZN2gc4ExprC1Ei, __ZN2gc4ExprC1Ej, __ZN2gc4ExprC1Es, __ZN2gc4ExprC1Et, 
                       __ZN2gc4ExprC1Ev, __ZN2gc4ExprC1Ex, __ZN2gc4ExprC1Ey, __ZN2gc4ExprC2ENS_9float16_tE, 
                       __ZN2gc4ExprC2ERK17loopkit_rt_type_t, __ZN2gc4ExprC2ERKNSt3__112basic_stringIcNS1_11char_traitsIcEENS1_9allocatorIcEEEE, 
                       __ZN2gc4ExprC2Ea, __ZN2gc4ExprC2Ed, __ZN2gc4ExprC2Ef, __ZN2gc4ExprC2Eh, 
                       __ZN2gc4ExprC2Ei, __ZN2gc4ExprC2Ej, __ZN2gc4ExprC2Es, __ZN2gc4ExprC2Et, 
                       __ZN2gc4ExprC2Ev, __ZN2gc4ExprC2Ex, __ZN2gc4ExprC2Ey, __ZN2gc4ExprdVERKS0_, 
                       __ZN2gc4ExprmIERKS0_, __ZN2gc4ExprmLERKS0_, __ZN2gc4ExprpLERKS0_, 
                       __ZN2gc4HalfEv, __ZN2gc4Int8Ev, __ZN2gc4Tile10equalShapeENSt3__16vectorINS1_10shared_ptrINS_6BufferEEENS1_9allocatorIS5_EEEE, 
                       __ZN2gc4Tile11equalBlocksENSt3__110shared_ptrINS_6BufferEEE, 
                       __ZN2gc4Tile11equalBlocksENSt3__16vectorINS1_10shared_ptrINS_6BufferEEENS1_9allocatorIS5_EEEE, 
                       __ZN2gc4Tile11equalThreadENSt3__110shared_ptrINS_6BufferEEE, 
                       __ZN2gc4Tile11exactBlocksERKNS_12BlockExtentsE, __ZN2gc4Tile11exactThreadERKNS_12BlockExtentsE, 
                       __ZN2gc4Tile12equalExtentsENSt3__110shared_ptrINS_6BufferEEE, 
                       __ZN2gc4Tile13extentsBufferEv, __ZN2gc4Tile14tileDimensionsEv, 
                       __ZN2gc4Tile15setBlockExtentsERKNS_12BlockExtentsE, __ZN2gc4Tile15setBlockExtentsEj, 
                       __ZN2gc4Tile16functionOfBlocksENSt3__110shared_ptrINS_6BufferEEENS1_8functionIFNS_12BlockExtentsERKS6_EEE, 
                       __ZN2gc4Tile16setThreadExtentsERKNS_12BlockExtentsE, __ZN2gc4Tile16setThreadExtentsEj, 
                       __ZN2gc4Tile17setBlockInvariantENSt3__110shared_ptrINS_17BindableInvariantEEE, 
                       __ZN2gc4Tile18setThreadInvariantENSt3__110shared_ptrINS_17BindableInvariantEEE, 
                       __ZN2gc4Tile19checkBlockInvariantENS_4util10TaggedBoolINS_24RuntimeInvariantCheckTagEEE, 
                       __ZN2gc4Tile20checkThreadInvariantENS_4util10TaggedBoolINS_24RuntimeInvariantCheckTagEEE, 
                       __ZN2gc4Tile6createENSt3__110shared_ptrINS_5RangeEEE, __ZN2gc4Tile6createERKNS_12BlockExtentsE, 
                       __ZN2gc4Tile6createEj, __ZN2gc4Tile7extentsEv, __ZN2gc4Tile9setDeviceENS_13eTargetDeviceE, 
                       __ZN2gc4Tile9setTraitsERKNS_8ScheduleE, __ZN2gc4TileC1ENSt3__110shared_ptrINS_5RangeEEE, 
                       __ZN2gc4TileC2ENSt3__110shared_ptrINS_5RangeEEE, __ZN2gc4VoidEv, 
                       __ZN2gc4acosENS_4ExprE, __ZN2gc4asinENS_4ExprE, __ZN2gc4atanENS_4ExprE, 
                       __ZN2gc4castERK17loopkit_rt_type_tRKNS_4ExprE, __ZN2gc4lang10ScopedTape6wrtBufERKNSt3__112basic_stringIcNS2_11char_traitsIcEENS2_9allocatorIcEEEE, 
                       __ZN2gc4lang10ScopedTape8backpropENS0_13ConstVariableERKNS0_13TypedVariableILNS0_13eVariableTypeE1EEERKNSt3__16vectorINS8_10shared_ptrINS_12BufferHandleEEENS8_9allocatorISC_EEEE, 
                       __ZN2gc4lang10ScopedTape8backpropENSt3__110shared_ptrINS_12BufferHandleEEERKNS0_13TypedVariableILNS0_13eVariableTypeE1EEERKNS2_6vectorIS5_NS2_9allocatorIS5_EEEE, 
                       __ZN2gc4lang10ScopedTapeC1ENS0_3WRTE, __ZN2gc4lang10ScopedTapeC1Ev, 
                       __ZN2gc4lang10ScopedTapeC2ENS0_3WRTE, __ZN2gc4lang10ScopedTapeC2Ev, 
                       __ZN2gc4lang10ScopedTapeD1Ev, __ZN2gc4lang10ScopedTapeD2Ev, 
                       __ZN2gc4lang11TapeManager10activeTapeEv, __ZN2gc4lang11TapeManager4stopEv, 
                       __ZN2gc4lang11TapeManager5startERKNS0_3WRTE, __ZN2gc4lang11TapeManager8instanceEv, 
                       __ZN2gc4lang11TapedResultC1ENS0_13ConstVariableE, __ZN2gc4lang11TapedResultC2ENS0_13ConstVariableE, 
                       __ZN2gc4lang12StringStream5flushEv, __ZN2gc4lang12StringStream6appendERKNS0_6StringE, 
                       __ZN2gc4lang12innerProductERKNS0_13VariableArrayINS0_6ScalarEEES5_, 
                       __ZN2gc4lang13TypedVariableILNS0_13eVariableTypeE0EE4copyERKS3_, 
                       __ZN2gc4lang13TypedVariableILNS0_13eVariableTypeE0EE4fillERKNS_4ExprE, 
                       __ZN2gc4lang13TypedVariableILNS0_13eVariableTypeE0EEC1ENSt3__110shared_ptrINS_12BufferHandleEEERKNS3_6TraitsE, 
                       __ZN2gc4lang13TypedVariableILNS0_13eVariableTypeE0EEC2ENSt3__110shared_ptrINS_12BufferHandleEEERKNS3_6TraitsE, 
                       __ZN2gc4lang13TypedVariableILNS0_13eVariableTypeE0EEdVERKS3_, 
                       __ZN2gc4lang13TypedVariableILNS0_13eVariableTypeE0EEmIERKS3_, 
                       __ZN2gc4lang13TypedVariableILNS0_13eVariableTypeE0EEmLENS0_13ConstVariableE, 
                       __ZN2gc4lang13TypedVariableILNS0_13eVariableTypeE0EEmLERKS3_, 
                       __ZN2gc4lang13TypedVariableILNS0_13eVariableTypeE0EEmmEv, 
                       __ZN2gc4lang13TypedVariableILNS0_13eVariableTypeE0EEpLERKS3_, 
                       __ZN2gc4lang13TypedVariableILNS0_13eVariableTypeE0EEppEv, 
                       __ZN2gc4lang13TypedVariableILNS0_13eVariableTypeE1EE11leftColumnsEj, 
                       __ZN2gc4lang13TypedVariableILNS0_13eVariableTypeE1EE12rightColumnsEj, 
                       __ZN2gc4lang13TypedVariableILNS0_13eVariableTypeE1EE4copyERKS3_, 
                       __ZN2gc4lang13TypedVariableILNS0_13eVariableTypeE1EE4fillERKNS1_ILS2_0EEE, 
                       __ZN2gc4lang13TypedVariableILNS0_13eVariableTypeE1EE4headEj, 
                       __ZN2gc4lang13TypedVariableILNS0_13eVariableTypeE1EE4tailEj, 
                       __ZN2gc4lang13TypedVariableILNS0_13eVariableTypeE1EE6columnENS_4ExprE, 
                       __ZN2gc4lang13TypedVariableILNS0_13eVariableTypeE1EE6columnEj, 
                       __ZN2gc4lang13TypedVariableILNS0_13eVariableTypeE1EE7segmentENS_4ExprEj, 
                       __ZN2gc4lang13TypedVariableILNS0_13eVariableTypeE1EE7segmentEjj, 
                       __ZN2gc4lang13TypedVariableILNS0_13eVariableTypeE1EE8setBlockEjjRKS3_, 
                       __ZN2gc4lang13TypedVariableILNS0_13eVariableTypeE1EEC1ENSt3__110shared_ptrINS_12BufferHandleEEERKNS3_6TraitsE, 
                       __ZN2gc4lang13TypedVariableILNS0_13eVariableTypeE1EEC2ENSt3__110shared_ptrINS_12BufferHandleEEERKNS3_6TraitsE, 
                       __ZN2gc4lang13TypedVariableILNS0_13eVariableTypeE1EEaSERKS3_, 
                       __ZN2gc4lang13TypedVariableILNS0_13eVariableTypeE1EEclENS_4ExprES4_, 
                       __ZN2gc4lang13TypedVariableILNS0_13eVariableTypeE1EEclEjj, 
                       __ZN2gc4lang13TypedVariableILNS0_13eVariableTypeE1EEdVERKNS1_ILS2_0EEE, 
                       __ZN2gc4lang13TypedVariableILNS0_13eVariableTypeE1EEixENS_4ExprE, 
                       __ZN2gc4lang13TypedVariableILNS0_13eVariableTypeE1EEixEj, 
                       __ZN2gc4lang13TypedVariableILNS0_13eVariableTypeE1EEmIERKNS1_ILS2_0EEE, 
                       __ZN2gc4lang13TypedVariableILNS0_13eVariableTypeE1EEmIERKS3_, 
                       __ZN2gc4lang13TypedVariableILNS0_13eVariableTypeE1EEmLENS0_13ConstVariableE, 
                       __ZN2gc4lang13TypedVariableILNS0_13eVariableTypeE1EEmLERKNS1_ILS2_0EEE, 
                       __ZN2gc4lang13TypedVariableILNS0_13eVariableTypeE1EEpLERKNS1_ILS2_0EEE, 
                       __ZN2gc4lang13TypedVariableILNS0_13eVariableTypeE1EEpLERKS3_, 
                       __ZN2gc4lang13TypedVariableILNS0_13eVariableTypeE1EEplERKNS1_ILS2_0EEE, 
                       __ZN2gc4lang13TypedVariableILNS0_13eVariableTypeE2EE6matrixEv, 
                       __ZN2gc4lang13TypedVariableILNS0_13eVariableTypeE2EE7perturbERKNS0_3so3E, 
                       __ZN2gc4lang13TypedVariableILNS0_13eVariableTypeE2EE7rectifyEv, 
                       __ZN2gc4lang13TypedVariableILNS0_13eVariableTypeE2EE8identityERK17loopkit_rt_type_tNSt3__112basic_stringIcNS7_11char_traitsIcEENS7_9allocatorIcEEEENS_11eHandednessE, 
                       __ZN2gc4lang13TypedVariableILNS0_13eVariableTypeE2EEC1ENSt3__110shared_ptrINS_12BufferHandleEEENS_11eHandednessE, 
                       __ZN2gc4lang13TypedVariableILNS0_13eVariableTypeE2EEC1ERK17loopkit_rt_type_tNSt3__112basic_stringIcNS7_11char_traitsIcEENS7_9allocatorIcEEEENS_11eHandednessE, 
                       __ZN2gc4lang13TypedVariableILNS0_13eVariableTypeE2EEC1ERKNS1_ILS2_1EEENS_11eHandednessE, 
                       __ZN2gc4lang13TypedVariableILNS0_13eVariableTypeE2EEC1ERKNS1_ILS2_1EEENSt3__112basic_stringIcNS7_11char_traitsIcEENS7_9allocatorIcEEEENS_11eHandednessE, 
                       __ZN2gc4lang13TypedVariableILNS0_13eVariableTypeE2EEC1ERKS3_NSt3__112basic_stringIcNS6_11char_traitsIcEENS6_9allocatorIcEEEE, 
                       __ZN2gc4lang13TypedVariableILNS0_13eVariableTypeE2EEC2ENSt3__110shared_ptrINS_12BufferHandleEEENS_11eHandednessE, 
                       __ZN2gc4lang13TypedVariableILNS0_13eVariableTypeE2EEC2ERK17loopkit_rt_type_tNSt3__112basic_stringIcNS7_11char_traitsIcEENS7_9allocatorIcEEEENS_11eHandednessE, 
                       __ZN2gc4lang13TypedVariableILNS0_13eVariableTypeE2EEC2ERKNS1_ILS2_1EEENS_11eHandednessE, 
                       __ZN2gc4lang13TypedVariableILNS0_13eVariableTypeE2EEC2ERKNS1_ILS2_1EEENSt3__112basic_stringIcNS7_11char_traitsIcEENS7_9allocatorIcEEEENS_11eHandednessE, 
                       __ZN2gc4lang13TypedVariableILNS0_13eVariableTypeE2EEC2ERKS3_NSt3__112basic_stringIcNS6_11char_traitsIcEENS6_9allocatorIcEEEE, 
                       __ZN2gc4lang13TypedVariableILNS0_13eVariableTypeE2EEaSERKS3_, 
                       __ZN2gc4lang13TypedVariableILNS0_13eVariableTypeE3EE1REv, 
                       __ZN2gc4lang13TypedVariableILNS0_13eVariableTypeE3EE1tEv, 
                       __ZN2gc4lang13TypedVariableILNS0_13eVariableTypeE3EE2adERKNS0_3se3E, 
                       __ZN2gc4lang13TypedVariableILNS0_13eVariableTypeE3EE3expERKNS0_3se3ENS_11eHandednessE, 
                       __ZN2gc4lang13TypedVariableILNS0_13eVariableTypeE3EE7perturbERKNS0_3se3E, 
                       __ZN2gc4lang13TypedVariableILNS0_13eVariableTypeE3EE8identityERK17loopkit_rt_type_tNSt3__112basic_stringIcNS7_11char_traitsIcEENS7_9allocatorIcEEEENS_11eHandednessE, 
                       __ZN2gc4lang13TypedVariableILNS0_13eVariableTypeE3EEC1ENSt3__110shared_ptrINS_12BufferHandleEEENS_11eHandednessE, 
                       __ZN2gc4lang13TypedVariableILNS0_13eVariableTypeE3EEC1ERK17loopkit_rt_type_tNSt3__112basic_stringIcNS7_11char_traitsIcEENS7_9allocatorIcEEEENS_11eHandednessE, 
                       __ZN2gc4lang13TypedVariableILNS0_13eVariableTypeE3EEC1ERKNS1_ILS2_1EEENS_11eHandednessE, 
                       __ZN2gc4lang13TypedVariableILNS0_13eVariableTypeE3EEC1ERKNS1_ILS2_1EEES6_NS_11eHandednessE, 
                       __ZN2gc4lang13TypedVariableILNS0_13eVariableTypeE3EEC1ERKNS1_ILS2_1EEES6_NSt3__112basic_stringIcNS7_11char_traitsIcEENS7_9allocatorIcEEEENS_11eHandednessE, 
                       __ZN2gc4lang13TypedVariableILNS0_13eVariableTypeE3EEC1ERKS3_NSt3__112basic_stringIcNS6_11char_traitsIcEENS6_9allocatorIcEEEE, 
                       __ZN2gc4lang13TypedVariableILNS0_13eVariableTypeE3EEC2ENSt3__110shared_ptrINS_12BufferHandleEEENS_11eHandednessE, 
                       __ZN2gc4lang13TypedVariableILNS0_13eVariableTypeE3EEC2ERK17loopkit_rt_type_tNSt3__112basic_stringIcNS7_11char_traitsIcEENS7_9allocatorIcEEEENS_11eHandednessE, 
                       __ZN2gc4lang13TypedVariableILNS0_13eVariableTypeE3EEC2ERKNS1_ILS2_1EEENS_11eHandednessE, 
                       __ZN2gc4lang13TypedVariableILNS0_13eVariableTypeE3EEC2ERKNS1_ILS2_1EEES6_NS_11eHandednessE, 
                       __ZN2gc4lang13TypedVariableILNS0_13eVariableTypeE3EEC2ERKNS1_ILS2_1EEES6_NSt3__112basic_stringIcNS7_11char_traitsIcEENS7_9allocatorIcEEEENS_11eHandednessE, 
                       __ZN2gc4lang13TypedVariableILNS0_13eVariableTypeE3EEC2ERKS3_NSt3__112basic_stringIcNS6_11char_traitsIcEENS6_9allocatorIcEEEE, 
                       __ZN2gc4lang13TypedVariableILNS0_13eVariableTypeE3EEaSERKS3_, 
                       __ZN2gc4lang13VariableArrayINS0_13TypedVariableILNS0_13eVariableTypeE2EEEEC1ENSt3__110shared_ptrINS_12BufferHandleEEE, 
                       __ZN2gc4lang13VariableArrayINS0_13TypedVariableILNS0_13eVariableTypeE2EEEEC2ENSt3__110shared_ptrINS_12BufferHandleEEE, 
                       __ZN2gc4lang13VariableArrayINS0_13TypedVariableILNS0_13eVariableTypeE2EEEEixENS_4ExprE, 
                       __ZN2gc4lang13VariableArrayINS0_13TypedVariableILNS0_13eVariableTypeE3EEEEC1ENSt3__110shared_ptrINS_12BufferHandleEEE, 
                       __ZN2gc4lang13VariableArrayINS0_13TypedVariableILNS0_13eVariableTypeE3EEEEC2ENSt3__110shared_ptrINS_12BufferHandleEEE, 
                       __ZN2gc4lang13VariableArrayINS0_13TypedVariableILNS0_13eVariableTypeE3EEEEixENS_4ExprE, 
                       __ZN2gc4lang13VariableArrayINS0_6MatrixEEC1ENSt3__110shared_ptrINS_12BufferHandleEEE, 
                       __ZN2gc4lang13VariableArrayINS0_6MatrixEEC2ENSt3__110shared_ptrINS_12BufferHandleEEE, 
                       __ZN2gc4lang13VariableArrayINS0_6MatrixEEixENS_4ExprE, __ZN2gc4lang13VariableArrayINS0_6ScalarEEC1ENSt3__110shared_ptrINS_12BufferHandleEEE, 
                       __ZN2gc4lang13VariableArrayINS0_6ScalarEEC2ENSt3__110shared_ptrINS_12BufferHandleEEE, 
                       __ZN2gc4lang13VariableArrayINS0_6ScalarEEixENS_4ExprE, __ZN2gc4lang13VariableArrayINS0_6VectorEEC1ENSt3__110shared_ptrINS_12BufferHandleEEE, 
                       __ZN2gc4lang13VariableArrayINS0_6VectorEEC2ENSt3__110shared_ptrINS_12BufferHandleEEE, 
                       __ZN2gc4lang13VariableArrayINS0_6VectorEEixENS_4ExprE, __ZN2gc4lang15TypedMatrixViewINSt3__117integral_constantIbLb0EEEEC1EjjRKNS_4ExprENS2_10shared_ptrINS_12BufferHandleEEE, 
                       __ZN2gc4lang15TypedMatrixViewINSt3__117integral_constantIbLb0EEEEC2EjjRKNS_4ExprENS2_10shared_ptrINS_12BufferHandleEEE, 
                       __ZN2gc4lang15TypedMatrixViewINSt3__117integral_constantIbLb0EEEEaSENS0_13ConstVariableE, 
                       __ZN2gc4lang15TypedMatrixViewINSt3__117integral_constantIbLb0EEEEaSERKNS0_13TypedVariableILNS0_13eVariableTypeE1EEE, 
                       __ZN2gc4lang15TypedMatrixViewINSt3__117integral_constantIbLb1EEEEC1EjjRKNS_4ExprENS2_10shared_ptrINS_12BufferHandleEEE, 
                       __ZN2gc4lang15TypedMatrixViewINSt3__117integral_constantIbLb1EEEEC2EjjRKNS_4ExprENS2_10shared_ptrINS_12BufferHandleEEE, 
                       __ZN2gc4lang15TypedMatrixViewINSt3__117integral_constantIbLb1EEEEaSENS0_13ConstVariableE, 
                       __ZN2gc4lang15TypedMatrixViewINSt3__117integral_constantIbLb1EEEEaSERKNS0_13TypedVariableILNS0_13eVariableTypeE1EEE, 
                       __ZN2gc4lang15TypedScalarViewINSt3__117integral_constantIbLb0EEEEC1ERKNS_4ExprENS2_10shared_ptrINS_12BufferHandleEEE, 
                       __ZN2gc4lang15TypedScalarViewINSt3__117integral_constantIbLb0EEEEC2ERKNS_4ExprENS2_10shared_ptrINS_12BufferHandleEEE, 
                       __ZN2gc4lang15TypedScalarViewINSt3__117integral_constantIbLb0EEEEaSENS0_13ConstVariableE, 
                       __ZN2gc4lang15TypedScalarViewINSt3__117integral_constantIbLb0EEEEaSERKNS0_13TypedVariableILNS0_13eVariableTypeE0EEE, 
                       __ZN2gc4lang15TypedScalarViewINSt3__117integral_constantIbLb1EEEEC1ERKNS_4ExprENS2_10shared_ptrINS_12BufferHandleEEE, 
                       __ZN2gc4lang15TypedScalarViewINSt3__117integral_constantIbLb1EEEEC2ERKNS_4ExprENS2_10shared_ptrINS_12BufferHandleEEE, 
                       __ZN2gc4lang15TypedScalarViewINSt3__117integral_constantIbLb1EEEEaSENS0_13ConstVariableE, 
                       __ZN2gc4lang15TypedScalarViewINSt3__117integral_constantIbLb1EEEEaSERKNS0_13TypedVariableILNS0_13eVariableTypeE0EEE, 
                       __ZN2gc4lang2ad12chainAdjointERKNS0_13TypedVariableILNS0_13eVariableTypeE1EEE, 
                       __ZN2gc4lang2ad13chainJacobianERKNS0_13TypedVariableILNS0_13eVariableTypeE1EEE, 
                       __ZN2gc4lang2ad4liftENS_4ExprEj, __ZN2gc4lang2ad5lowerEjj, 
                       __ZN2gc4lang2ad5scaleERKNS0_13TypedVariableILNS0_13eVariableTypeE0EEE, 
                       __ZN2gc4lang2ad6negateEv, __ZN2gc4lang2ad8identityEv, __ZN2gc4lang2ad9transposeERKNSt3__18functionIFNS0_6MatrixENS_4ExprEEEE, 
                       __ZN2gc4lang3WRTC1ENSt3__16vectorINS0_13ConstVariableENS2_9allocatorIS4_EEEE, 
                       __ZN2gc4lang3WRTC1ESt16initializer_listINS0_13ConstVariableEE, 
                       __ZN2gc4lang3WRTC2ENSt3__16vectorINS0_13ConstVariableENS2_9allocatorIS4_EEEE, 
                       __ZN2gc4lang3WRTC2ESt16initializer_listINS0_13ConstVariableEE, 
                       __ZN2gc4lang3absERKNS0_13TypedVariableILNS0_13eVariableTypeE0EEE, 
                       __ZN2gc4lang3cosERKNS0_13TypedVariableILNS0_13eVariableTypeE0EEE, 
                       __ZN2gc4lang3est11JacobianSet18allocateMatrixFreeEjRKNSt3__16vectorIjNS3_9allocatorIjEEEE, 
                       __ZN2gc4lang3est11JacobianSet20allocateMaterializedEjPNS_16BindableArgumentINS0_6BufferEEEb, 
                       __ZN2gc4lang3est11VariableSetC1ERKNSt3__13mapINS3_12basic_stringIcNS3_11char_traitsIcEENS3_9allocatorIcEEEEPNS_16BindableArgumentINS1_8VariableEEENS3_4lessISA_EENS8_INS3_4pairIKSA_SE_EEEEEE, 
                       __ZN2gc4lang3est11VariableSetC2ERKNSt3__13mapINS3_12basic_stringIcNS3_11char_traitsIcEENS3_9allocatorIcEEEEPNS_16BindableArgumentINS1_8VariableEEENS3_4lessISA_EENS8_INS3_4pairIKSA_SE_EEEEEE, 
                       __ZN2gc4lang3est16DenseBlockMatrixC1EPNS_16BindableArgumentINS0_6BufferEEES6_, 
                       __ZN2gc4lang3est16DenseBlockMatrixC2EPNS_16BindableArgumentINS0_6BufferEEES6_, 
                       __ZN2gc4lang3est16DenseBlockMatrixclENS_4ExprE, __ZN2gc4lang3est16DenseBlockMatrixclENS_4ExprES3_, 
                       __ZN2gc4lang3est20BitmappedBlockMatrixC1EPNS_16BindableArgumentINS0_6BufferEEES6_S6_, 
                       __ZN2gc4lang3est20BitmappedBlockMatrixC2EPNS_16BindableArgumentINS0_6BufferEEES6_S6_, 
                       __ZN2gc4lang3est20BitmappedBlockMatrixclENS_4ExprE, __ZN2gc4lang3est20BitmappedBlockMatrixclENS_4ExprES3_, 
                       __ZN2gc4lang3est22SchurEliminatedHessianC1ERKNSt3__16vectorIPNS_16BindableArgumentINS0_6BufferEEENS3_9allocatorIS8_EEEE, 
                       __ZN2gc4lang3est22SchurEliminatedHessianC2ERKNSt3__16vectorIPNS_16BindableArgumentINS0_6BufferEEENS3_9allocatorIS8_EEEE, 
                       __ZN2gc4lang3est24CompressedRowBlockMatrixC1EPNS_16BindableArgumentINS0_6BufferEEES6_S6_S6_, 
                       __ZN2gc4lang3est24CompressedRowBlockMatrixC2EPNS_16BindableArgumentINS0_6BufferEEES6_S6_S6_, 
                       __ZN2gc4lang3est24CompressedRowBlockMatrixclENS_4ExprE, __ZN2gc4lang3est24CompressedRowBlockMatrixclENS_4ExprES3_, 
                       __ZN2gc4lang3expERKNS0_13TypedVariableILNS0_13eVariableTypeE0EEE, 
                       __ZN2gc4lang3logERKNS0_13TypedVariableILNS0_13eVariableTypeE0EEE, 
                       __ZN2gc4lang3maxERKNS0_13TypedVariableILNS0_13eVariableTypeE0EEES5_, 
                       __ZN2gc4lang3minERKNS0_13TypedVariableILNS0_13eVariableTypeE0EEES5_, 
                       __ZN2gc4lang3ops10dotProductERKNS0_13TypedVariableILNS0_13eVariableTypeE1EEES6_, 
                       __ZN2gc4lang3ops12crossProductERKNS0_13TypedVariableILNS0_13eVariableTypeE1EEES6_, 
                       __ZN2gc4lang3ops12matrixNegateERKNS0_13TypedVariableILNS0_13eVariableTypeE1EEE, 
                       __ZN2gc4lang3ops12scalarDivideERKNS0_13TypedVariableILNS0_13eVariableTypeE0EEES6_, 
                       __ZN2gc4lang3ops12scalarNegateERKNS0_13TypedVariableILNS0_13eVariableTypeE0EEE, 
                       __ZN2gc4lang3ops12scalarSelectERKNS0_13TypedVariableILNS0_13eVariableTypeE0EEES6_S6_, 
                       __ZN2gc4lang3ops14extractElementERKNS0_13TypedVariableILNS0_13eVariableTypeE1EEENS_4ExprENSt3__117integral_constantIbLb0EEE, 
                       __ZN2gc4lang3ops14extractElementERKNS0_13TypedVariableILNS0_13eVariableTypeE1EEENS_4ExprENSt3__117integral_constantIbLb1EEE, 
                       __ZN2gc4lang3ops14extractSegmentERKNS0_13TypedVariableILNS0_13eVariableTypeE1EEENS_4ExprEjNSt3__117integral_constantIbLb0EEE, 
                       __ZN2gc4lang3ops14extractSegmentERKNS0_13TypedVariableILNS0_13eVariableTypeE1EEENS_4ExprEjNSt3__117integral_constantIbLb1EEE, 
                       __ZN2gc4lang3ops14matrixMultiplyERKNS0_13TypedVariableILNS0_13eVariableTypeE1EEES6_, 
                       __ZN2gc4lang3ops14matrixSubtractERKNS0_13TypedVariableILNS0_13eVariableTypeE1EEES6_, 
                       __ZN2gc4lang3ops14scalarMultiplyERKNS0_13TypedVariableILNS0_13eVariableTypeE0EEES6_, 
                       __ZN2gc4lang3ops14scalarSubtractERKNS0_13TypedVariableILNS0_13eVariableTypeE0EEES6_, 
                       __ZN2gc4lang3ops15matrixEntrywiseERKNS0_13TypedVariableILNS0_13eVariableTypeE1EEERKNSt3__18functionIFNS0_6ScalarERKNS2_ILS3_0EEEEEE, 
                       __ZN2gc4lang3ops16entrywiseProductERKNS0_13TypedVariableILNS0_13eVariableTypeE1EEES6_, 
                       __ZN2gc4lang3ops19scalarMatrixProductERKNS0_13TypedVariableILNS0_13eVariableTypeE0EEERKNS2_ILS3_1EEE, 
                       __ZN2gc4lang3ops3absERKNS0_13TypedVariableILNS0_13eVariableTypeE0EEE, 
                       __ZN2gc4lang3ops3cosERKNS0_13TypedVariableILNS0_13eVariableTypeE0EEE, 
                       __ZN2gc4lang3ops3expERKNS0_13TypedVariableILNS0_13eVariableTypeE0EEE, 
                       __ZN2gc4lang3ops3logERKNS0_13TypedVariableILNS0_13eVariableTypeE0EEE, 
                       __ZN2gc4lang3ops3powERKNS0_13TypedVariableILNS0_13eVariableTypeE0EEES6_, 
                       __ZN2gc4lang3ops3powERKNS0_13TypedVariableILNS0_13eVariableTypeE0EEEd, 
                       __ZN2gc4lang3ops3powERKNS0_13TypedVariableILNS0_13eVariableTypeE0EEEi, 
                       __ZN2gc4lang3ops3sinERKNS0_13TypedVariableILNS0_13eVariableTypeE0EEE, 
                       __ZN2gc4lang3ops4acosERKNS0_13TypedVariableILNS0_13eVariableTypeE0EEE, 
                       __ZN2gc4lang3ops4asinERKNS0_13TypedVariableILNS0_13eVariableTypeE0EEE, 
                       __ZN2gc4lang3ops4atanERKNS0_13TypedVariableILNS0_13eVariableTypeE0EEE, 
                       __ZN2gc4lang3ops4copyERNS0_13TypedVariableILNS0_13eVariableTypeE0EEERKS4_, 
                       __ZN2gc4lang3ops4copyERNS0_13TypedVariableILNS0_13eVariableTypeE1EEERKS4_, 
                       __ZN2gc4lang3ops4copyERNS0_13TypedVariableILNS0_13eVariableTypeE2EEERKS4_, 
                       __ZN2gc4lang3ops4copyERNS0_13TypedVariableILNS0_13eVariableTypeE3EEERKS4_, 
                       __ZN2gc4lang3ops4fillERNS0_13TypedVariableILNS0_13eVariableTypeE1EEERKNS2_ILS3_0EEE, 
                       __ZN2gc4lang3ops4fillERNS0_13TypedVariableILNS0_13eVariableTypeE1EEERKNSt3__16vectorINS0_6ScalarENS6_9allocatorIS8_EEEE, 
                       __ZN2gc4lang3ops4sqrtERKNS0_13TypedVariableILNS0_13eVariableTypeE0EEE, 
                       __ZN2gc4lang3ops5atan2ERKNS0_13TypedVariableILNS0_13eVariableTypeE0EEES6_, 
                       __ZN2gc4lang3ops6normSqERKNS0_13TypedVariableILNS0_13eVariableTypeE1EEE, 
                       __ZN2gc4lang3ops6vstackERKNS0_13TypedVariableILNS0_13eVariableTypeE1EEES6_, 
                       __ZN2gc4lang3ops9SE3ActionERKNS0_13TypedVariableILNS0_13eVariableTypeE3EEERKNS2_ILS3_1EEE, 
                       __ZN2gc4lang3ops9SO3ActionERKNS0_13TypedVariableILNS0_13eVariableTypeE2EEERKNS2_ILS3_1EEE, 
                       __ZN2gc4lang3ops9matrixAddERKNS0_13TypedVariableILNS0_13eVariableTypeE1EEES6_, 
                       __ZN2gc4lang3ops9matrixSumERKNS0_13TypedVariableILNS0_13eVariableTypeE1EEE, 
                       __ZN2gc4lang3ops9scalarAddERKNS0_13TypedVariableILNS0_13eVariableTypeE0EEES6_, 
                       __ZN2gc4lang3powERKNS0_13TypedVariableILNS0_13eVariableTypeE0EEES5_, 
                       __ZN2gc4lang3powERKNS0_13TypedVariableILNS0_13eVariableTypeE0EEEd, 
                       __ZN2gc4lang3powERKNS0_13TypedVariableILNS0_13eVariableTypeE0EEEi, 
                       __ZN2gc4lang3sinERKNS0_13TypedVariableILNS0_13eVariableTypeE0EEE, 
                       __ZN2gc4lang3sumERKNS0_13VariableArrayINS0_6MatrixEEE, __ZN2gc4lang3sumERKNS0_13VariableArrayINS0_6ScalarEEE, 
                       __ZN2gc4lang4Tape10variableIDENS0_13ConstVariableE, __ZN2gc4lang4Tape13markInvalidIfERKNS0_13TypedVariableILNS0_13eVariableTypeE0EEE, 
                       __ZN2gc4lang4Tape14startRecordingEv, __ZN2gc4lang4Tape15produceAdjointsEv, 
                       __ZN2gc4lang4Tape4pushERKNSt3__112basic_stringIcNS2_11char_traitsIcEENS2_9allocatorIcEEEENS0_13ConstVariableERKNS2_6vectorINS0_2ad7AdjointENS6_ISE_EEEE, 
                       __ZN2gc4lang4Tape5pauseEv, __ZN2gc4lang4Tape6resumeEv, __ZN2gc4lang4TapeC1ERKNS0_3WRTE, 
                       __ZN2gc4lang4TapeC2ERKNS0_3WRTE, __ZN2gc4lang4TileC1ENSt3__110shared_ptrINS_4TileEEE, 
                       __ZN2gc4lang4TileC2ENSt3__110shared_ptrINS_4TileEEE, __ZN2gc4lang4acosERKNS0_13TypedVariableILNS0_13eVariableTypeE0EEE, 
                       __ZN2gc4lang4asinERKNS0_13TypedVariableILNS0_13eVariableTypeE0EEE, 
                       __ZN2gc4lang4atanERKNS0_13TypedVariableILNS0_13eVariableTypeE0EEE, 
                       __ZN2gc4lang4coutEv, __ZN2gc4lang4endlEv, __ZN2gc4lang4math11computeLDLTERKNS0_13TypedVariableILNS0_13eVariableTypeE1EEE, 
                       __ZN2gc4lang4math15invertSymmetricERKNS0_13TypedVariableILNS0_13eVariableTypeE1EEERS4_, 
                       __ZN2gc4lang4math18invert2x2SymmetricERKNS0_13TypedVariableILNS0_13eVariableTypeE1EEERS4_, 
                       __ZN2gc4lang4math18invert3x3SymmetricERKNS0_13TypedVariableILNS0_13eVariableTypeE1EEERS4_, 
                       __ZN2gc4lang4math18invert4x4SymmetricERKNS0_13TypedVariableILNS0_13eVariableTypeE1EEERS4_, 
                       __ZN2gc4lang4math19symmetrizeFromLowerERNS0_13TypedVariableILNS0_13eVariableTypeE1EEE, 
                       __ZN2gc4lang4math4LDLTC1ERKNS0_13TypedVariableILNS0_13eVariableTypeE1EEE, 
                       __ZN2gc4lang4math4LDLTC2ERKNS0_13TypedVariableILNS0_13eVariableTypeE1EEE, 
                       __ZN2gc4lang4math5solveERKNS1_4LDLTERKNS0_13TypedVariableILNS0_13eVariableTypeE1EEE, 
                       __ZN2gc4lang4math6invertERKNS1_4LDLTE, __ZN2gc4lang4math9invert2x2ERKNS0_13TypedVariableILNS0_13eVariableTypeE1EEERS4_, 
                       __ZN2gc4lang4math9invert3x3ERKNS0_13TypedVariableILNS0_13eVariableTypeE1EEERS4_, 
                       __ZN2gc4lang4math9invert4x4ERKNS0_13TypedVariableILNS0_13eVariableTypeE1EEERS4_, 
                       __ZN2gc4lang4simd12innerProductERKNS0_4TileERNS0_6BufferERKS5_S8_NS_4util10TaggedBoolINS1_19MatMulTransposedTagEEESC_, 
                       __ZN2gc4lang4simd14laneToPositionENS_4ExprE, __ZN2gc4lang4sqrtERKNS0_13TypedVariableILNS0_13eVariableTypeE0EEE, 
                       __ZN2gc4lang5IndexC1EPKNS0_5RangeENS_4ExprE, __ZN2gc4lang5IndexC2EPKNS0_5RangeENS_4ExprE, 
                       __ZN2gc4lang5RangeC1ERKNS_5RangeE, __ZN2gc4lang5RangeC2ERKNS_5RangeE, 
                       __ZN2gc4lang5atan2ERKNS0_13TypedVariableILNS0_13eVariableTypeE0EEES5_, 
                       __ZN2gc4lang6Buffer6matrixEjjNS_4ExprE, __ZN2gc4lang6Buffer6vectorEjNS_4ExprE, 
                       __ZN2gc4lang6BufferC1ERNS_16BufferParametersE, __ZN2gc4lang6BufferC2ERNS_16BufferParametersE, 
                       __ZN2gc4lang6BufferclENS0_5IndexE, __ZN2gc4lang6BufferclENS_4ExprE, 
                       __ZN2gc4lang6BufferclERKNS0_6VectorE, __ZN2gc4lang6BufferixENS0_5IndexE, 
                       __ZN2gc4lang6BufferixENS_4ExprE, __ZN2gc4lang6Matrix3eyeERK17loopkit_rt_type_tjjNSt3__112basic_stringIcNS5_11char_traitsIcEENS5_9allocatorIcEEEE, 
                       __ZN2gc4lang6Matrix4zeroERK17loopkit_rt_type_tjjNSt3__112basic_stringIcNS5_11char_traitsIcEENS5_9allocatorIcEEEE, 
                       __ZN2gc4lang6MatrixC1ERK17loopkit_rt_type_tNSt3__112basic_stringIcNS5_11char_traitsIcEENS5_9allocatorIcEEEE, 
                       __ZN2gc4lang6MatrixC1ERK17loopkit_rt_type_tjjNSt3__112basic_stringIcNS5_11char_traitsIcEENS5_9allocatorIcEEEE, 
                       __ZN2gc4lang6MatrixC1ERKNS0_13TypedVariableILNS0_13eVariableTypeE1EEENSt3__112basic_stringIcNS7_11char_traitsIcEENS7_9allocatorIcEEEE, 
                       __ZN2gc4lang6MatrixC1ERKNS0_6ScalarENSt3__112basic_stringIcNS5_11char_traitsIcEENS5_9allocatorIcEEEE, 
                       __ZN2gc4lang6MatrixC1ERKNS1_4DataE, __ZN2gc4lang6MatrixC1ERKS1_NSt3__112basic_stringIcNS4_11char_traitsIcEENS4_9allocatorIcEEEE, 
                       __ZN2gc4lang6MatrixC1EjjRKNS0_13TypedVariableILNS0_13eVariableTypeE0EEENSt3__112basic_stringIcNS7_11char_traitsIcEENS7_9allocatorIcEEEE, 
                       __ZN2gc4lang6MatrixC1EjjRKNSt3__16vectorINS0_6ScalarENS2_9allocatorIS4_EEEENS2_12basic_stringIcNS2_11char_traitsIcEENS5_IcEEEE, 
                       __ZN2gc4lang6MatrixC2ERK17loopkit_rt_type_tNSt3__112basic_stringIcNS5_11char_traitsIcEENS5_9allocatorIcEEEE, 
                       __ZN2gc4lang6MatrixC2ERK17loopkit_rt_type_tjjNSt3__112basic_stringIcNS5_11char_traitsIcEENS5_9allocatorIcEEEE, 
                       __ZN2gc4lang6MatrixC2ERKNS0_13TypedVariableILNS0_13eVariableTypeE1EEENSt3__112basic_stringIcNS7_11char_traitsIcEENS7_9allocatorIcEEEE, 
                       __ZN2gc4lang6MatrixC2ERKNS0_6ScalarENSt3__112basic_stringIcNS5_11char_traitsIcEENS5_9allocatorIcEEEE, 
                       __ZN2gc4lang6MatrixC2ERKNS1_4DataE, __ZN2gc4lang6MatrixC2ERKS1_NSt3__112basic_stringIcNS4_11char_traitsIcEENS4_9allocatorIcEEEE, 
                       __ZN2gc4lang6MatrixC2EjjRKNS0_13TypedVariableILNS0_13eVariableTypeE0EEENSt3__112basic_stringIcNS7_11char_traitsIcEENS7_9allocatorIcEEEE, 
                       __ZN2gc4lang6MatrixC2EjjRKNSt3__16vectorINS0_6ScalarENS2_9allocatorIS4_EEEENS2_12basic_stringIcNS2_11char_traitsIcEENS5_IcEEEE, 
                       __ZN2gc4lang6MatrixD0Ev, __ZN2gc4lang6MatrixD1Ev, __ZN2gc4lang6MatrixD2Ev, 
                       __ZN2gc4lang6MatrixaSENS0_13ConstVariableE, __ZN2gc4lang6MemoryC1ERK17loopkit_rt_type_tNS_4ExprENS_11eMemoryTypeENSt3__112basic_stringIcNS7_11char_traitsIcEENS7_9allocatorIcEEEE, 
                       __ZN2gc4lang6MemoryC2ERK17loopkit_rt_type_tNS_4ExprENS_11eMemoryTypeENSt3__112basic_stringIcNS7_11char_traitsIcEENS7_9allocatorIcEEEE, 
                       __ZN2gc4lang6MemoryD1Ev, __ZN2gc4lang6MemoryD2Ev, __ZN2gc4lang6ScalarC1ERK17loopkit_rt_type_tNSt3__112basic_stringIcNS5_11char_traitsIcEENS5_9allocatorIcEEEE, 
                       __ZN2gc4lang6ScalarC1ERKNS0_13TypedVariableILNS0_13eVariableTypeE0EEENSt3__112basic_stringIcNS7_11char_traitsIcEENS7_9allocatorIcEEEE, 
                       __ZN2gc4lang6ScalarC1ERKNS1_4DataE, __ZN2gc4lang6ScalarC1ERKNS_4ExprENSt3__112basic_stringIcNS5_11char_traitsIcEENS5_9allocatorIcEEEE, 
                       __ZN2gc4lang6ScalarC2ERK17loopkit_rt_type_tNSt3__112basic_stringIcNS5_11char_traitsIcEENS5_9allocatorIcEEEE, 
                       __ZN2gc4lang6ScalarC2ERKNS0_13TypedVariableILNS0_13eVariableTypeE0EEENSt3__112basic_stringIcNS7_11char_traitsIcEENS7_9allocatorIcEEEE, 
                       __ZN2gc4lang6ScalarC2ERKNS1_4DataE, __ZN2gc4lang6ScalarC2ERKNS_4ExprENSt3__112basic_stringIcNS5_11char_traitsIcEENS5_9allocatorIcEEEE, 
                       __ZN2gc4lang6ScalarD0Ev, __ZN2gc4lang6ScalarD1Ev, __ZN2gc4lang6ScalarD2Ev, 
                       __ZN2gc4lang6ScalaraSENS0_13ConstVariableE, __ZN2gc4lang6ScalaraSERKNS0_13TypedVariableILNS0_13eVariableTypeE0EEE, 
                       __ZN2gc4lang6String3endEv, __ZN2gc4lang6String5beginEv, __ZN2gc4lang6String5clearEv, 
                       __ZN2gc4lang6StringC1EPKc, __ZN2gc4lang6StringC1ERKNS_4ExprE, 
                       __ZN2gc4lang6StringC1ERKNSt3__112basic_stringIcNS2_11char_traitsIcEENS2_9allocatorIcEEEE, 
                       __ZN2gc4lang6StringC1Ed, __ZN2gc4lang6StringC1Ef, __ZN2gc4lang6StringC1Ei, 
                       __ZN2gc4lang6StringC1Ej, __ZN2gc4lang6StringC2EPKc, __ZN2gc4lang6StringC2ERKNS_4ExprE, 
                       __ZN2gc4lang6StringC2ERKNSt3__112basic_stringIcNS2_11char_traitsIcEENS2_9allocatorIcEEEE, 
                       __ZN2gc4lang6StringC2Ed, __ZN2gc4lang6StringC2Ef, __ZN2gc4lang6StringC2Ei, 
                       __ZN2gc4lang6StringC2Ej, __ZN2gc4lang6VectorC1ERK17loopkit_rt_type_tNSt3__112basic_stringIcNS5_11char_traitsIcEENS5_9allocatorIcEEEE, 
                       __ZN2gc4lang6VectorC1ERK17loopkit_rt_type_tjNSt3__112basic_stringIcNS5_11char_traitsIcEENS5_9allocatorIcEEEE, 
                       __ZN2gc4lang6VectorC1ERKNS0_13TypedVariableILNS0_13eVariableTypeE1EEENSt3__112basic_stringIcNS7_11char_traitsIcEENS7_9allocatorIcEEEE, 
                       __ZN2gc4lang6VectorC1ERKNS0_6Matrix4DataE, __ZN2gc4lang6VectorC1ERKNSt3__16vectorINS0_6ScalarENS2_9allocatorIS4_EEEENS2_12basic_stringIcNS2_11char_traitsIcEENS5_IcEEEE, 
                       __ZN2gc4lang6VectorC1ERKS1_NSt3__112basic_stringIcNS4_11char_traitsIcEENS4_9allocatorIcEEEE, 
                       __ZN2gc4lang6VectorC1EjRKNS0_13TypedVariableILNS0_13eVariableTypeE0EEENSt3__112basic_stringIcNS7_11char_traitsIcEENS7_9allocatorIcEEEE, 
                       __ZN2gc4lang6VectorC2ERK17loopkit_rt_type_tNSt3__112basic_stringIcNS5_11char_traitsIcEENS5_9allocatorIcEEEE, 
                       __ZN2gc4lang6VectorC2ERK17loopkit_rt_type_tjNSt3__112basic_stringIcNS5_11char_traitsIcEENS5_9allocatorIcEEEE, 
                       __ZN2gc4lang6VectorC2ERKNS0_13TypedVariableILNS0_13eVariableTypeE1EEENSt3__112basic_stringIcNS7_11char_traitsIcEENS7_9allocatorIcEEEE, 
                       __ZN2gc4lang6VectorC2ERKNS0_6Matrix4DataE, __ZN2gc4lang6VectorC2ERKNSt3__16vectorINS0_6ScalarENS2_9allocatorIS4_EEEENS2_12basic_stringIcNS2_11char_traitsIcEENS5_IcEEEE, 
                       __ZN2gc4lang6VectorC2ERKS1_NSt3__112basic_stringIcNS4_11char_traitsIcEENS4_9allocatorIcEEEE, 
                       __ZN2gc4lang6VectorC2EjRKNS0_13TypedVariableILNS0_13eVariableTypeE0EEENSt3__112basic_stringIcNS7_11char_traitsIcEENS7_9allocatorIcEEEE, 
                       __ZN2gc4lang6camera11ImageBoundsC1ERK17loopkit_rt_type_t, 
                       __ZN2gc4lang6camera11ImageBoundsC1ERK17loopkit_rt_type_tRKNS0_7ScalarTIjvEES9_, 
                       __ZN2gc4lang6camera11ImageBoundsC1ERKNS0_13TypedVariableILNS0_13eVariableTypeE0EEES7_S7_S7_, 
                       __ZN2gc4lang6camera11ImageBoundsC1ERKNSt3__15arrayINS0_6ScalarELm4EEERKNS4_INS0_7ScalarTIjvEELm2EEE, 
                       __ZN2gc4lang6camera11ImageBoundsC2ERK17loopkit_rt_type_t, 
                       __ZN2gc4lang6camera11ImageBoundsC2ERK17loopkit_rt_type_tRKNS0_7ScalarTIjvEES9_, 
                       __ZN2gc4lang6camera11ImageBoundsC2ERKNS0_13TypedVariableILNS0_13eVariableTypeE0EEES7_S7_S7_, 
                       __ZN2gc4lang6camera11ImageBoundsC2ERKNSt3__15arrayINS0_6ScalarELm4EEERKNS4_INS0_7ScalarTIjvEELm2EEE, 
                       __ZN2gc4lang6camera18Kannala4DistortionC1ERKNS0_13TypedVariableILNS0_13eVariableTypeE1EEENS1_20eProjectionModelTypeERKNS3_ILS4_0EEERKNS0_7ScalarTIjvEE, 
                       __ZN2gc4lang6camera18Kannala4DistortionC2ERKNS0_13TypedVariableILNS0_13eVariableTypeE1EEENS1_20eProjectionModelTypeERKNS3_ILS4_0EEERKNS0_7ScalarTIjvEE, 
                       __ZN2gc4lang6camera7PinholeC1ERKNS0_13TypedVariableILNS0_13eVariableTypeE1EEE, 
                       __ZN2gc4lang6camera7PinholeC1ERKNS1_11ImageBoundsE, __ZN2gc4lang6camera7PinholeC2ERKNS0_13TypedVariableILNS0_13eVariableTypeE1EEE, 
                       __ZN2gc4lang6camera7PinholeC2ERKNS1_11ImageBoundsE, __ZN2gc4lang6detail11sqrtEpsilonERK17loopkit_rt_type_t, 
                       __ZN2gc4lang6detail15ExpCoefficients7computeERKNS0_13TypedVariableILNS0_13eVariableTypeE0EEE, 
                       __ZN2gc4lang6detail17axisAngleFromSkewERKNS0_13TypedVariableILNS0_13eVariableTypeE1EEE, 
                       __ZN2gc4lang6detail17skewFromAxisAngleERKNS0_13TypedVariableILNS0_13eVariableTypeE1EEE, 
                       __ZN2gc4lang6detail19DiffExpCoefficients7computeERKNS0_13TypedVariableILNS0_13eVariableTypeE0EEE, 
                       __ZN2gc4lang6detail6SE3ExpERKNS0_13TypedVariableILNS0_13eVariableTypeE1EEEPNS0_6MatrixE, 
                       __ZN2gc4lang6detail6SE3LogERKNS1_9SE3MatrixEPNS0_6MatrixE, 
                       __ZN2gc4lang6detail6SO3ExpERKNS0_13TypedVariableILNS0_13eVariableTypeE1EEEPNS0_6MatrixE, 
                       __ZN2gc4lang6detail6SO3LogERKNS0_13TypedVariableILNS0_13eVariableTypeE1EEEPNS0_6MatrixE, 
                       __ZN2gc4lang6detail7epsilonERK17loopkit_rt_type_t, __ZN2gc4lang6detail9SE3MatrixC1ERK17loopkit_rt_type_t, 
                       __ZN2gc4lang6detail9SE3MatrixC1ERKNS0_13TypedVariableILNS0_13eVariableTypeE1EEES7_, 
                       __ZN2gc4lang6detail9SE3MatrixC2ERK17loopkit_rt_type_t, __ZN2gc4lang6detail9SE3MatrixC2ERKNS0_13TypedVariableILNS0_13eVariableTypeE1EEES7_, 
                       __ZN2gc4lang6hstackERKNS0_13TypedVariableILNS0_13eVariableTypeE1EEES5_, 
                       __ZN2gc4lang6hstackERKNSt3__16vectorINS0_6MatrixENS1_9allocatorIS3_EEEE, 
                       __ZN2gc4lang6selectERKNS0_13TypedVariableILNS0_13eVariableTypeE0EEES5_S5_, 
                       __ZN2gc4lang6vstackERKNS0_13TypedVariableILNS0_13eVariableTypeE1EEES5_, 
                       __ZN2gc4lang6vstackERKNSt3__16vectorINS0_6MatrixENS1_9allocatorIS3_EEEE, 
                       __ZN2gc4lang7productERKNS0_13VariableArrayINS0_6ScalarEEE, 
                       __ZN2gc4lang8popcountERKNS0_13TypedVariableILNS0_13eVariableTypeE0EEE, 
                       __ZN2gc4langlsERNS0_12StringStreamENS0_13ConstVariableE, __ZN2gc4langlsERNS0_12StringStreamENS0_8VariableE, 
                       __ZN2gc4langlsERNS0_12StringStreamERKNS0_11FlushStreamE, __ZN2gc4langlsERNS0_12StringStreamERKNS0_13TypedVariableILNS0_13eVariableTypeE0EEE, 
                       __ZN2gc4langlsERNS0_12StringStreamERKNS0_13TypedVariableILNS0_13eVariableTypeE1EEE, 
                       __ZN2gc4langlsERNS0_12StringStreamERKNS0_6StringE, __ZN2gc4langmiENS0_13ConstVariableES1_, 
                       __ZN2gc4langmlENS0_13ConstVariableES1_, __ZN2gc4langmlERKNS0_13TypedVariableILNS0_13eVariableTypeE0EEERKNS1_ILS2_1EEE, 
                       __ZN2gc4langmlERKNS_4ExprERKNS0_13TypedVariableILNS0_13eVariableTypeE1EEE, 
                       __ZN2gc4langngENS0_13ConstVariableE, __ZN2gc4langplENS0_13ConstVariableES1_, 
                       __ZN2gc4sqrtENS_4ExprE, __ZN2gc4typeINS_9float16_tEEE17loopkit_rt_type_tv, 
                       __ZN2gc4typeIaEE17loopkit_rt_type_tv, __ZN2gc4typeIbEE17loopkit_rt_type_tv, 
                       __ZN2gc4typeIdEE17loopkit_rt_type_tv, __ZN2gc4typeIfEE17loopkit_rt_type_tv, 
                       __ZN2gc4typeIhEE17loopkit_rt_type_tv, __ZN2gc4typeIiEE17loopkit_rt_type_tv, 
                       __ZN2gc4typeIjEE17loopkit_rt_type_tv, __ZN2gc4typeIsEE17loopkit_rt_type_tv, 
                       __ZN2gc4typeItEE17loopkit_rt_type_tv, __ZN2gc4typeIvEE17loopkit_rt_type_tv, 
                       __ZN2gc4typeIxEE17loopkit_rt_type_tv, __ZN2gc4typeIyEE17loopkit_rt_type_tv, 
                       __ZN2gc4util12staticAssertEb, __ZN2gc5FloatEv, __ZN2gc5Int16Ev, 
                       __ZN2gc5Int32Ev, __ZN2gc5Int64Ev, __ZN2gc5Range10updateMapsEv, 
                       __ZN2gc5Range6createERKNSt3__112basic_stringIcNS1_11char_traitsIcEENS1_9allocatorIcEEEE, 
                       __ZN2gc5Range6createERKNSt3__112basic_stringIcNS1_11char_traitsIcEENS1_9allocatorIcEEEENS_6ExtentE, 
                       __ZN2gc5Range6createERKNSt3__112basic_stringIcNS1_11char_traitsIcEENS1_9allocatorIcEEEERKNS_12BlockExtentsE, 
                       __ZN2gc5Range6updateEv, __ZN2gc5Range9setExtentENS_6ExtentE, 
                       __ZN2gc5Range9setExtentERKNS_12BlockExtentsE, __ZN2gc5Range9subscribeENSt3__110shared_ptrINS_8RangeMapEEENS_4util10TaggedBoolINS_20ForwardOrBackwardTagEEE, 
                       __ZN2gc5RangeC1ERKNSt3__112basic_stringIcNS1_11char_traitsIcEENS1_9allocatorIcEEEE, 
                       __ZN2gc5RangeC1ERKNSt3__112basic_stringIcNS1_11char_traitsIcEENS1_9allocatorIcEEEERKNS_12BlockExtentsE, 
                       __ZN2gc5RangeC2ERKNSt3__112basic_stringIcNS1_11char_traitsIcEENS1_9allocatorIcEEEE, 
                       __ZN2gc5RangeC2ERKNSt3__112basic_stringIcNS1_11char_traitsIcEENS1_9allocatorIcEEEERKNS_12BlockExtentsE, 
                       __ZN2gc5Shape21loopkitDimensionsDataEv, __ZN2gc5Shape5rangeEv, 
                       __ZN2gc5Shape6updateEv, __ZN2gc5ShapeC1ENS_12BlockExtentsENS_14ElementExtentsE, 
                       __ZN2gc5ShapeC1ENS_6ExtentENS_14ElementExtentsE, __ZN2gc5ShapeC1ENSt3__110shared_ptrINS_5RangeEEENS_14ElementExtentsE, 
                       __ZN2gc5ShapeC1EjNS_14ElementExtentsE, __ZN2gc5ShapeC2ENS_12BlockExtentsENS_14ElementExtentsE, 
                       __ZN2gc5ShapeC2ENS_6ExtentENS_14ElementExtentsE, __ZN2gc5ShapeC2ENSt3__110shared_ptrINS_5RangeEEENS_14ElementExtentsE, 
                       __ZN2gc5ShapeC2EjNS_14ElementExtentsE, __ZN2gc5UInt8Ev, __ZN2gc5atan2ENS_4ExprES0_, 
                       __ZN2gc5equalERKNS_4ExprES2_, __ZN2gc6Buffer10dataBufferEv, 
                       __ZN2gc6Buffer10reallocateEv, __ZN2gc6Buffer11castInPlaceE17loopkit_rt_type_t, 
                       __ZN2gc6Buffer14deviceAllocateEv, __ZN2gc6Buffer16deviceDeallocateEv, 
                       __ZN2gc6Buffer16dimensionsBufferEv, __ZN2gc6Buffer21maybeDeallocateDeviceEv, 
                       __ZN2gc6Buffer21setUpDimensionsBufferEv, __ZN2gc6Buffer23setBindDimensionsBufferENS_4util10TaggedBoolINS_17BindDimensionsTagEEE, 
                       __ZN2gc6Buffer23setRequiresCopyToDeviceEv, __ZN2gc6Buffer4copyENSt3__110shared_ptrIS0_EENS_4util10TaggedBoolINS_11DeepCopyTagEEE, 
                       __ZN2gc6Buffer4copyERS0_NS_4util10TaggedBoolINS_11DeepCopyTagEEE, 
                       __ZN2gc6Buffer4dataEj, __ZN2gc6Buffer5cloneENS_4util10TaggedBoolINS_11DeepCopyTagEEE, 
                       __ZN2gc6Buffer5resetE17loopkit_rt_type_tPvRKNS_5ShapeENS_4util10TaggedBoolINS_11DeepCopyTagEEE, 
                       __ZN2gc6Buffer5resetEPvNS_4util10TaggedBoolINS_11DeepCopyTagEEE, 
                       __ZN2gc6Buffer5resetEPvRKNS_5ShapeENS_4util10TaggedBoolINS_11DeepCopyTagEEE, 
                       __ZN2gc6Buffer5resetERKNS_12BlockExtentsE, __ZN2gc6Buffer6createE17loopkit_rt_type_t, 
                       __ZN2gc6Buffer6createE17loopkit_rt_type_tNS_5ShapeENS_4util10TaggedBoolINS_17AllocateMemoryTagEEE, 
                       __ZN2gc6Buffer6createE17loopkit_rt_type_tPvNS_5ShapeENS_4util10TaggedBoolINS_11DeepCopyTagEEE, 
                       __ZN2gc6Buffer6createENS_5ShapeE, __ZN2gc6Buffer6createERKNSt3__112basic_stringIcNS1_11char_traitsIcEENS1_9allocatorIcEEEE17loopkit_rt_type_t, 
                       __ZN2gc6Buffer6createERKNSt3__112basic_stringIcNS1_11char_traitsIcEENS1_9allocatorIcEEEE17loopkit_rt_type_tNS_5ShapeENS_4util10TaggedBoolINS_17AllocateMemoryTagEEE, 
                       __ZN2gc6Buffer6createERKNSt3__112basic_stringIcNS1_11char_traitsIcEENS1_9allocatorIcEEEE17loopkit_rt_type_tPvNS_5ShapeENS_4util10TaggedBoolINS_11DeepCopyTagEEE, 
                       __ZN2gc6Buffer6createERKNSt3__112basic_stringIcNS1_11char_traitsIcEENS1_9allocatorIcEEEENS_5ShapeE, 
                       __ZN2gc6Buffer7setTypeE17loopkit_rt_type_t, __ZN2gc6Buffer7setZeroEv, 
                       __ZN2gc6Buffer8allocateEv, __ZN2gc6BufferC1ENSt3__112basic_stringIcNS1_11char_traitsIcEENS1_9allocatorIcEEEERKNS_5ShapeE, 
                       __ZN2gc6BufferC2ENSt3__112basic_stringIcNS1_11char_traitsIcEENS1_9allocatorIcEEEERKNS_5ShapeE, 
                       __ZN2gc6BufferD0Ev, __ZN2gc6BufferD1Ev, __ZN2gc6BufferD2Ev, 
                       __ZN2gc6DoubleEv, __ZN2gc6ExtentC1Ej, __ZN2gc6ExtentC1Ejb, 
                       __ZN2gc6ExtentC2Ej, __ZN2gc6ExtentC2Ejb, __ZN2gc6Kernel9argumentsEb, 
                       __ZN2gc6KernelC2ERKNSt3__112basic_stringIcNS1_11char_traitsIcEENS1_9allocatorIcEEEENS1_10shared_ptrINS_4TileEEE, 
                       __ZN2gc6Logger13logInCategoryENS0_9eSeverityEPKcS3_z, __ZN2gc6Logger14makeFileTargetEPKcbb, 
                       __ZN2gc6Logger15makeOsLogTargetEPKcS2_, __ZN2gc6Logger16kDefaultCategoryE, 
                       __ZN2gc6Logger17makeConsoleTargetEPKcb, __ZN2gc6Logger18getMinimumSeverityEPKc, 
                       __ZN2gc6Logger18setMinimumSeverityENS0_9eSeverityEPKc, __ZN2gc6Logger3logENS0_9eSeverityEPKcz, 
                       __ZN2gc6Logger8instanceEv, __ZN2gc6Logger9setTargetENSt3__110shared_ptrINS0_6TargetEEEPKc, 
                       __ZN2gc6LoggerC1Ev, __ZN2gc6LoggerC2Ev, __ZN2gc6ObjectC2ERKNSt3__112basic_stringIcNS1_11char_traitsIcEENS1_9allocatorIcEEEERKNS_8ScheduleE, 
                       __ZN2gc6Target10setAssertsENS_13eTargetAssertE, __ZN2gc6Target12setProfilingENS_16eTargetProfilingE, 
                       __ZN2gc6Target12setSignpostsENS_16eTargetSignpostsE, __ZN2gc6Target14setParallelismENS_12eParallelismE, 
                       __ZN2gc6Target7setASANENS_11eTargetASANE, __ZN2gc6Target8setDebugENS_12eTargetDebugE, 
                       __ZN2gc6Target9setCustomENS_13eCustomKernelE, __ZN2gc6Target9setDeviceENS_13eTargetDeviceE, 
                       __ZN2gc6TargetC1ENS_13eTargetDeviceEb, __ZN2gc6TargetC2ENS_13eTargetDeviceEb, 
                       __ZN2gc6UInt16Ev, __ZN2gc6UInt32Ev, __ZN2gc6UInt64Ev, __ZN2gc6detail11vm_allocateEm, 
                       __ZN2gc6detail12createBufferEv, __ZN2gc6detail13vm_deallocateEmPv, 
                       __ZN2gc6device9gpuFamilyEv, __ZN2gc6selectENS_4ExprES0_S0_, 
                       __ZN2gc7Extents2atEj, __ZN2gc7Extents3endEv, __ZN2gc7Extents5beginEv, 
                       __ZN2gc7ExtentsC1ENS_6ExtentE, __ZN2gc7ExtentsC1ERKNSt3__16vectorINS_6ExtentENS1_9allocatorIS3_EEEE, 
                       __ZN2gc7ExtentsC1ERKNSt3__16vectorIjNS1_9allocatorIjEEEE, 
                       __ZN2gc7ExtentsC1ESt16initializer_listINS_6ExtentEE, __ZN2gc7ExtentsC1Ej, 
                       __ZN2gc7ExtentsC2ENS_6ExtentE, __ZN2gc7ExtentsC2ERKNSt3__16vectorINS_6ExtentENS1_9allocatorIS3_EEEE, 
                       __ZN2gc7ExtentsC2ERKNSt3__16vectorIjNS1_9allocatorIjEEEE, 
                       __ZN2gc7ExtentsC2ESt16initializer_listINS_6ExtentEE, __ZN2gc7ExtentsC2Ej, 
                       __ZN2gc7ExtentsixEj, __ZN2gc7IRScope5buildEv, __ZN2gc7IRScopeC1EjPS0_, 
                       __ZN2gc7IRScopeC2EjPS0_, __ZN2gc7Library13removeProgramERKNSt3__112basic_stringIcNS1_11char_traitsIcEENS1_9allocatorIcEEEE, 
                       __ZN2gc7Library3endEv, __ZN2gc7Library4findERKNSt3__112basic_stringIcNS1_11char_traitsIcEENS1_9allocatorIcEEEE, 
                       __ZN2gc7Library5beginEv, __ZN2gc7Library5clearEv, __ZN2gc7Library6appendERKNS_12ComputeGraph13CommandBufferE, 
                       __ZN2gc7Library6appendERKNSt3__112basic_stringIcNS1_11char_traitsIcEENS1_9allocatorIcEEEERKNS_8ScheduleERKNS1_6vectorINS_12KernelObjectENS5_ISE_EEEE, 
                       __ZN2gc7Library6createEv, __ZN2gc7LibraryC1Ev, __ZN2gc7LibraryC2Ev, 
                       __ZN2gc7Program15generateOutputsENSt3__16vectorINS_15eLibraryOutputsENS1_9allocatorIS3_EEEENS1_12basic_stringIcNS1_11char_traitsIcEENS4_IcEEEE, 
                       __ZN2gc7Program3endEv, __ZN2gc7Program5beginEv, __ZN2gc7Program7executeEv, 
                       __ZN2gc7ProgramC1ERKNSt3__112basic_stringIcNS1_11char_traitsIcEENS1_9allocatorIcEEEERKNS_8ScheduleERKNS1_6vectorINS_12KernelObjectENS5_ISE_EEEE, 
                       __ZN2gc7ProgramC2ERKNSt3__112basic_stringIcNS1_11char_traitsIcEENS1_9allocatorIcEEEERKNS_8ScheduleERKNS1_6vectorINS_12KernelObjectENS5_ISE_EEEE, 
                       __ZN2gc7makeOneE17loopkit_rt_type_t, __ZN2gc7runtime14registerBufferERK17loopkit_rt_type_tRKNSt3__112basic_stringIcNS4_11char_traitsIcEENS4_9allocatorIcEEEESC_RNS_16RegisteredBufferE, 
                       __ZN2gc7runtime4loadERK17loopkit_rt_type_tRKNS_16RegisteredBufferERKNS_4ExprE, 
                       __ZN2gc7runtime7RuntimeC1Ev, __ZN2gc7runtime7RuntimeC2Ev, 
                       __ZN2gc8RangeMapC2ENS_13eRangeMapTypeE, __ZN2gc8exprTypeENS_4ExprE, 
                       __ZN2gc8makeTrueEv, __ZN2gc8makeZeroE17loopkit_rt_type_t, 
                       __ZN2gc8popcountENS_4ExprE, __ZN2gc8toStringERK17loopkit_rt_type_t, 
                       __ZN2gc8toStringERKNS_7ExtentsE, __ZN2gc9Generator12clearCounterEv, 
                       __ZN2gc9Generator14scheduleTraitsEv, __ZN2gc9Generator15defaultScheduleEv, 
                       __ZN2gc9Generator15generateOutputsENSt3__16vectorINS_15eLibraryOutputsENS1_9allocatorIS3_EEEENS1_12basic_stringIcNS1_11char_traitsIcEENS4_IcEEEE, 
                       __ZN2gc9Generator7executeEv, __ZN2gc9Generator7programEv, 
                       __ZN2gc9Generator8scheduleERNSt3__110shared_ptrINS_7LibraryEEE, 
                       __ZN2gc9Generator8scheduleERNSt3__110shared_ptrINS_7LibraryEEENS_8ScheduleE, 
                       __ZN2gc9GeneratorC2ERKNSt3__112basic_stringIcNS1_11char_traitsIcEENS1_9allocatorIcEEEE, 
                       __ZN2gc9IRBuilder11parentScopeEv, __ZN2gc9IRBuilder12markCompiledEPKNS_7IRScopeE, 
                       __ZN2gc9IRBuilder15externFunctionsEv, __ZN2gc9IRBuilder5buildEv, 
                       __ZN2gc9IRBuilder5clearEv, __ZN2gc9IRBuilder5pauseEv, __ZN2gc9IRBuilder6appendEPNS_6IRStmtE, 
                       __ZN2gc9IRBuilder6resumeEv, __ZN2gc9IRBuilder8instanceEv, 
                       __ZN2gc9IRBuilder9exitScopeEv, __ZN2gc9IRBuilder9openScopeEv, 
                       __ZN2gc9IRBuilderC1Ev, __ZN2gc9IRBuilderC2Ev, __ZN2gc9IRBuilderD1Ev, 
                       __ZN2gc9IRBuilderD2Ev, __ZN2gc9Interface10Generators3endEv, 
                       __ZN2gc9Interface10Generators4findERKNSt3__112basic_stringIcNS2_11char_traitsIcEENS2_9allocatorIcEEEE, 
                       __ZN2gc9Interface10Generators5beginEv, __ZN2gc9Interface17registerGeneratorENSt3__110shared_ptrINS_9GeneratorEEE, 
                       __ZN2gc9Interface7Buffers3endEv, __ZN2gc9Interface7Buffers4findERKNSt3__112basic_stringIcNS2_11char_traitsIcEENS2_9allocatorIcEEEE, 
                       __ZN2gc9Interface7Buffers5beginEv, __ZN2gc9Interface7BuffersixERKNSt3__112basic_stringIcNS2_11char_traitsIcEENS2_9allocatorIcEEEE, 
                       __ZN2gc9InterfaceC2Ev, __ZN2gc9Signposts6Logger14categoryStringENS0_9eCategoryE, 
                       __ZN2gc9Signposts6Logger3endERKNSt3__112basic_stringIcNS2_11char_traitsIcEENS2_9allocatorIcEEEE, 
                       __ZN2gc9Signposts6Logger5eventERKNSt3__112basic_stringIcNS2_11char_traitsIcEENS2_9allocatorIcEEEE, 
                       __ZN2gc9Signposts6Logger5startERKNSt3__112basic_stringIcNS2_11char_traitsIcEENS2_9allocatorIcEEEE, 
                       __ZN2gc9Signposts6LoggerC1ENS0_9eCategoryE, __ZN2gc9Signposts6LoggerC2ENS0_9eCategoryE, 
                       __ZN2gc9Signposts8instanceEv, __ZN2gc9SignpostsixENS0_9eCategoryE, 
                       __ZN2gc9float16_t13make_infinityEb, __ZN2gc9float16_t14make_from_bitsEt, 
                       __ZN2gc9float16_t8make_nanEv, __ZN2gc9float16_t9make_zeroEb, 
                       __ZN2gc9float16_tC1Ed, __ZN2gc9float16_tC1Ef, __ZN2gc9float16_tC1Ei, 
                       __ZN2gc9float16_tC1Ev, __ZN2gc9float16_tC2Ed, __ZN2gc9float16_tC2Ef, 
                       __ZN2gc9float16_tC2Ei, __ZN2gc9float16_tC2Ev, __ZN2gc9float16_tdVES0_, 
                       __ZN2gc9float16_tmIES0_, __ZN2gc9float16_tmLES0_, __ZN2gc9float16_tpLES0_, 
                       __ZN2gc9logicalOrENS_4ExprES0_, __ZN2gc9makeFalseEv, __ZN2gceqERKNS_6BufferES2_, 
                       __ZN2gcli2_cEy, __ZN2gclsERNSt3__113basic_ostreamIcNS0_11char_traitsIcEEEERKNS0_3mapINS0_12basic_stringIcS3_NS0_9allocatorIcEEEENS_18PerformanceCounterENS0_4lessISA_EENS8_INS0_4pairIKSA_SB_EEEEEE, 
                       __ZN2gclsERNSt3__113basic_ostreamIcNS0_11char_traitsIcEEEERKNS_18PerformanceCounter5StatsE, 
                       __ZN2gclsERNSt3__113basic_ostreamIcNS0_11char_traitsIcEEEERKNS_4ExprE, 
                       __ZN2gclsERNSt3__113basic_ostreamIcNS0_11char_traitsIcEEEERKNS_6BufferE, 
                       __ZN2gclsERNSt3__113basic_ostreamIcNS0_11char_traitsIcEEEERKNS_7ProgramE, 
                       __ZN2gclsERNSt3__113basic_ostreamIcNS0_11char_traitsIcEEEERKNS_8ScheduleE, 
                       __ZNK2gc11TypedIRStmtILNS_9eStmtTypeE1EE5buildERKNS_4StmtE, 
                       __ZNK2gc11TypedIRStmtILNS_9eStmtTypeE2EE5buildERKNS_4StmtE, 
                       __ZNK2gc11TypedIRStmtILNS_9eStmtTypeE3EE5buildERKNS_4StmtE, 
                       __ZNK2gc11TypedIRStmtILNS_9eStmtTypeE4EE5buildERKNS_4StmtE, 
                       __ZNK2gc11TypedIRStmtILNS_9eStmtTypeE5EE5buildERKNS_4StmtE, 
                       __ZNK2gc11TypedIRStmtILNS_9eStmtTypeE6EE5buildERKNS_4StmtE, 
                       __ZNK2gc11TypedIRStmtILNS_9eStmtTypeE7EE5buildERKNS_4StmtE, 
                       __ZNK2gc11TypedIRStmtILNS_9eStmtTypeE8EE5buildERKNS_4StmtE, 
                       __ZNK2gc11TypedIRStmtILNS_9eStmtTypeE8EE7postfixEv, __ZNK2gc11TypedObjectILNS_11eObjectTypeE1EE4typeEv, 
                       __ZNK2gc11TypedObjectILNS_11eObjectTypeE1EE7executeERKNSt3__112basic_stringIcNS3_11char_traitsIcEENS3_9allocatorIcEEEERNS3_6vectorIPvNS7_ISD_EEEE, 
                       __ZNK2gc12ComputeGraph3endEv, __ZNK2gc12ComputeGraph4Node3endEv, 
                       __ZNK2gc12ComputeGraph4Node4findERKNSt3__112basic_stringIcNS2_11char_traitsIcEENS2_9allocatorIcEEEE, 
                       __ZNK2gc12ComputeGraph4Node5beginEv, __ZNK2gc12ComputeGraph4findERKNSt3__112basic_stringIcNS1_11char_traitsIcEENS1_9allocatorIcEEEE, 
                       __ZNK2gc12ComputeGraph4nameEv, __ZNK2gc12ComputeGraph4rootEv, 
                       __ZNK2gc12ComputeGraph5beginEv, __ZNK2gc14EqualInvariant5checkENSt3__110shared_ptrINS_6BufferEEENS_4util10TaggedBoolINS_35BindableInvariantLogFailedChecksTagEEE, 
                       __ZNK2gc14EqualInvariant6appendERNS_23BindableInvariantTripleE, 
                       __ZNK2gc14SIMDGroupBlock5checkENSt3__110shared_ptrINS_6BufferEEENS_4util10TaggedBoolINS_35BindableInvariantLogFailedChecksTagEEE, 
                       __ZNK2gc14SIMDGroupBlock6appendERNS_23BindableInvariantTripleE, 
                       __ZNK2gc14ScheduleTraits15defaultScheduleEv, __ZNK2gc14ScheduleTraits8validateERNS_8ScheduleERKNSt3__112basic_stringIcNS3_11char_traitsIcEENS3_9allocatorIcEEEE, 
                       __ZNK2gc14TileDimensions10blockIndexENS_10eLoopIndexE, __ZNK2gc14TileDimensions10blockIndexEv, 
                       __ZNK2gc14TileDimensions10laneExtentEv, __ZNK2gc14TileDimensions11blockExtentENS_10eLoopIndexE, 
                       __ZNK2gc14TileDimensions11threadIndexENS_10eLoopIndexE, __ZNK2gc14TileDimensions11threadIndexEv, 
                       __ZNK2gc14TileDimensions12blockExtentsEv, __ZNK2gc14TileDimensions12threadExtentENS_10eLoopIndexE, 
                       __ZNK2gc14TileDimensions13laneIndexNameEv, __ZNK2gc14TileDimensions13threadExtentsEv, 
                       __ZNK2gc14TileDimensions14blockIndexNameENS_10eLoopIndexE, 
                       __ZNK2gc14TileDimensions14blockIndexNameEv, __ZNK2gc14TileDimensions15laneExtentsNameEv, 
                       __ZNK2gc14TileDimensions15threadIndexNameENS_10eLoopIndexE, 
                       __ZNK2gc14TileDimensions15threadIndexNameEv, __ZNK2gc14TileDimensions16blockTotalExtentEv, 
                       __ZNK2gc14TileDimensions16registeredBufferEv, __ZNK2gc14TileDimensions17blockPositionNameENS_10eLoopIndexE, 
                       __ZNK2gc14TileDimensions17hasBlockInvariantEv, __ZNK2gc14TileDimensions17threadTotalExtentEv, 
                       __ZNK2gc14TileDimensions18blockCumulativeSumENS_10eLoopIndexE, 
                       __ZNK2gc14TileDimensions18hasThreadInvariantEv, __ZNK2gc14TileDimensions19threadCumulativeSumENS_10eLoopIndexE, 
                       __ZNK2gc14TileDimensions4loadEi, __ZNK2gc14TileDimensions5isGPUEv, 
                       __ZNK2gc14TileDimensions5rangeEv, __ZNK2gc15ScalarInvariant5checkENSt3__110shared_ptrINS_6BufferEEENS_4util10TaggedBoolINS_35BindableInvariantLogFailedChecksTagEEE, 
                       __ZNK2gc15ScalarInvariant6appendERNS_23BindableInvariantTripleE, 
                       __ZNK2gc16BufferParameters10invariantsEv, __ZNK2gc16BufferParameters15numberOfBuffersENS_4util10TaggedBoolINS_25IncludeAllBoundBuffersTagEEE, 
                       __ZNK2gc16BufferParameters16registeredBufferEv, __ZNK2gc16BufferParameters19registeredDimensionEv, 
                       __ZNK2gc16BufferParameters4nameEv, __ZNK2gc16BufferParameters6bufferEv, 
                       __ZNK2gc16ExternalFunction10returnTypeEv, __ZNK2gc16ExternalFunction12targetDeviceEv, 
                       __ZNK2gc16ExternalFunction4nameEv, __ZNK2gc16ExternalFunction5scopeEv, 
                       __ZNK2gc16ExternalFunction7postfixEv, __ZNK2gc16ExternalFunction9signatureEv, 
                       __ZNK2gc16GeneratorFactory11isAllocatedEv, __ZNK2gc16GeneratorFactory11isScheduledEv, 
                       __ZNK2gc16GeneratorFactory12hasGeneratorERKNSt3__112basic_stringIcNS1_11char_traitsIcEENS1_9allocatorIcEEEE, 
                       __ZNK2gc16GeneratorFactory8countersERNSt3__13mapINS1_12basic_stringIcNS1_11char_traitsIcEENS1_9allocatorIcEEEENS_18PerformanceCounterENS1_4lessIS8_EENS6_INS1_4pairIKS8_S9_EEEEEE, 
                       __ZNK2gc16GeneratorManager12hasGeneratorERKNSt3__112basic_stringIcNS1_11char_traitsIcEENS1_9allocatorIcEEEE, 
                       __ZNK2gc16GeneratorManager3endEv, __ZNK2gc16GeneratorManager4findERKNSt3__112basic_stringIcNS1_11char_traitsIcEENS1_9allocatorIcEEEE, 
                       __ZNK2gc16GeneratorManager4sizeEv, __ZNK2gc16GeneratorManager5beginEv, 
                       __ZNK2gc17BindableInvariant4maskEv, __ZNK2gc17BindableInvariant4typeEv, 
                       __ZNK2gc17BindableInvariant9satisfiesERKNS_22eBindableInvariantMaskE, 
                       __ZNK2gc18BindableInvariants10isCompleteERNS_23BindableInvariantTripleE, 
                       __ZNK2gc18BindableInvariants3endEv, __ZNK2gc18BindableInvariants3hasENS_22eBindableInvariantMaskE, 
                       __ZNK2gc18BindableInvariants5beginEv, __ZNK2gc18BindableInvariants5checkENSt3__110shared_ptrINS_6BufferEEENS_4util10TaggedBoolINS_35BindableInvariantLogFailedChecksTagEEE, 
                       __ZNK2gc18EqualTypeInvariant5checkENSt3__110shared_ptrINS_6BufferEEENS_4util10TaggedBoolINS_35BindableInvariantLogFailedChecksTagEEE, 
                       __ZNK2gc18EqualTypeInvariant6appendERNS_23BindableInvariantTripleE, 
                       __ZNK2gc18ExactTypeInvariant5checkENSt3__110shared_ptrINS_6BufferEEENS_4util10TaggedBoolINS_35BindableInvariantLogFailedChecksTagEEE, 
                       __ZNK2gc18ExactTypeInvariant6appendERNS_23BindableInvariantTripleE, 
                       __ZNK2gc18IncreasingRangeMap6bufferEv, __ZNK2gc18IncreasingRangeMap7forwardEv, 
                       __ZNK2gc18IncreasingRangeMap8backwardEv, __ZNK2gc18MatrixProductBlock5checkENSt3__110shared_ptrINS_6BufferEEENS_4util10TaggedBoolINS_35BindableInvariantLogFailedChecksTagEEE, 
                       __ZNK2gc18MatrixProductBlock6appendERNS_23BindableInvariantTripleE, 
                       __ZNK2gc18PerformanceCounter10statisticsEv, __ZNK2gc19BufferParametersSet15numberOfBuffersENS_4util10TaggedBoolINS_25IncludeAllBoundBuffersTagEEE, 
                       __ZNK2gc19BufferParametersSet15numberOfBuffersEv, __ZNK2gc19BufferParametersSet20numberOfBoundBuffersEv, 
                       __ZNK2gc19BufferParametersSet3endEv, __ZNK2gc19BufferParametersSet4findERKNSt3__112basic_stringIcNS1_11char_traitsIcEENS1_9allocatorIcEEEE, 
                       __ZNK2gc19BufferParametersSet5beginEv, __ZNK2gc19BufferParametersSetixEj, 
                       __ZNK2gc19EqualBlockInvariant5checkENSt3__110shared_ptrINS_6BufferEEENS_4util10TaggedBoolINS_35BindableInvariantLogFailedChecksTagEEE, 
                       __ZNK2gc19EqualBlockInvariant6appendERNS_23BindableInvariantTripleE, 
                       __ZNK2gc19ExactBlockInvariant5checkENSt3__110shared_ptrINS_6BufferEEENS_4util10TaggedBoolINS_35BindableInvariantLogFailedChecksTagEEE, 
                       __ZNK2gc19ExactBlockInvariant6appendERNS_23BindableInvariantTripleE, 
                       __ZNK2gc20MatrixProductElement5checkENSt3__110shared_ptrINS_6BufferEEENS_4util10TaggedBoolINS_35BindableInvariantLogFailedChecksTagEEE, 
                       __ZNK2gc20MatrixProductElement6appendERNS_23BindableInvariantTripleE, 
                       __ZNK2gc21EqualExtentsInvariant5checkENSt3__110shared_ptrINS_6BufferEEENS_4util10TaggedBoolINS_35BindableInvariantLogFailedChecksTagEEE, 
                       __ZNK2gc21EqualExtentsInvariant6appendERNS_23BindableInvariantTripleE, 
                       __ZNK2gc21StridedBlockInvariant5checkENSt3__110shared_ptrINS_6BufferEEENS_4util10TaggedBoolINS_35BindableInvariantLogFailedChecksTagEEE, 
                       __ZNK2gc21StridedBlockInvariant6appendERNS_23BindableInvariantTripleE, 
                       __ZNK2gc22BufferHandleIdentifierltERKS0_, __ZNK2gc22EqualElementsInvariant5checkENSt3__110shared_ptrINS_6BufferEEENS_4util10TaggedBoolINS_35BindableInvariantLogFailedChecksTagEEE, 
                       __ZNK2gc22EqualElementsInvariant6appendERNS_23BindableInvariantTripleE, 
                       __ZNK2gc22ExactElementsInvariant5checkENSt3__110shared_ptrINS_6BufferEEENS_4util10TaggedBoolINS_35BindableInvariantLogFailedChecksTagEEE, 
                       __ZNK2gc22ExactElementsInvariant6appendERNS_23BindableInvariantTripleE, 
                       __ZNK2gc23GenericBindableArgument2atEm, __ZNK2gc23GenericBindableArgument3endEv, 
                       __ZNK2gc23GenericBindableArgument4sizeEv, __ZNK2gc23GenericBindableArgument5beginEv, 
                       __ZNK2gc24FunctionOfBlockInvariant5checkENSt3__110shared_ptrINS_6BufferEEENS_4util10TaggedBoolINS_35BindableInvariantLogFailedChecksTagEEE, 
                       __ZNK2gc24FunctionOfBlockInvariant6appendERNS_23BindableInvariantTripleE, 
                       __ZNK2gc24ScalarwiseBlockInvariant5checkENSt3__110shared_ptrINS_6BufferEEENS_4util10TaggedBoolINS_35BindableInvariantLogFailedChecksTagEEE, 
                       __ZNK2gc24ScalarwiseBlockInvariant6appendERNS_23BindableInvariantTripleE, 
                       __ZNK2gc3est10EvaluateHp10kernelNameEjj, __ZNK2gc3est10EvaluateJp10kernelNameERKNSt3__112basic_stringIcNS2_11char_traitsIcEENS2_9allocatorIcEEEEjb, 
                       __ZNK2gc3est10FactorData19numberOfConstraintsEv, __ZNK2gc3est10FactorData5emptyEv, 
                       __ZNK2gc3est10TripletSet4typeEv, __ZNK2gc3est11BlockMatrix12rowBlockSizeEv, 
                       __ZNK2gc3est11BlockMatrix13rowBlockCountEv, __ZNK2gc3est11BlockMatrix14elementExtentsEv, 
                       __ZNK2gc3est11BlockMatrix15columnBlockSizeEv, __ZNK2gc3est11BlockMatrix16columnBlockCountEv, 
                       __ZNK2gc3est11BlockMatrix17freeRowBlockCountEv, __ZNK2gc3est11BlockMatrix20freeColumnBlockCountEv, 
                       __ZNK2gc3est11BlockMatrix4typeEv, __ZNK2gc3est11EvaluateJtJ10kernelNameERKNSt3__112basic_stringIcNS2_11char_traitsIcEENS2_9allocatorIcEEEEjj, 
                       __ZNK2gc3est11EvaluateJte10kernelNameERKNSt3__112basic_stringIcNS2_11char_traitsIcEENS2_9allocatorIcEEEEj, 
                       __ZNK2gc3est11FactorGraph10isConstantERKNS0_8VariableE, __ZNK2gc3est11FactorGraph11reducedOnlyEv, 
                       __ZNK2gc3est11FactorGraph15nonConstantOnlyEv, __ZNK2gc3est11FactorGraph23hasVariablesToEliminateEv, 
                       __ZNK2gc3est11FactorGraph4costEv, __ZNK2gc3est11PCGIterate110kernelNameERKNSt3__112basic_stringIcNS2_11char_traitsIcEENS2_9allocatorIcEEEE, 
                       __ZNK2gc3est11PCGIterate210kernelNameERKNSt3__112basic_stringIcNS2_11char_traitsIcEENS2_9allocatorIcEEEE, 
                       __ZNK2gc3est11TypedFactorILNS0_11eFactorTypeE1EE12costFunctionEv, 
                       __ZNK2gc3est11VariableSet10saveParamsERKNSt3__18functionIFbRKNS0_8VariableEEEE, 
                       __ZNK2gc3est11VariableSet5norm2ERKNSt3__18functionIFbRKNS0_8VariableEEEE, 
                       __ZNK2gc3est11VariableSet7norm2SqERKNSt3__18functionIFbRKNS0_8VariableEEEE, 
                       __ZNK2gc3est11VariableSetixEj, __ZNK2gc3est12EvaluateJtJp10kernelNameERKNSt3__112basic_stringIcNS2_11char_traitsIcEENS2_9allocatorIcEEEEj, 
                       __ZNK2gc3est12EvaluateJteM10kernelNameERKNSt3__112basic_stringIcNS2_11char_traitsIcEENS2_9allocatorIcEEEEj, 
                       __ZNK2gc3est12InvertBlockM10kernelNameERKNSt3__112basic_stringIcNS2_11char_traitsIcEENS2_9allocatorIcEEEE, 
                       __ZNK2gc3est13FactorBuffers11variableIDsEjj, __ZNK2gc3est13FactorBuffers19numberOfConstraintsEv, 
                       __ZNK2gc3est13FactorBuffers5arityEjj, __ZNK2gc3est13VariableGroup11memberNamesEv, 
                       __ZNK2gc3est13VariableGroup5stateEv, __ZNK2gc3est13VariableGroup6blocksEv, 
                       __ZNK2gc3est13VariableGroup7buffersEv, __ZNK2gc3est13VariableGroup7offsetsEv, 
                       __ZNK2gc3est13VariableGroup9dimensionEv, __ZNK2gc3est14EvaluateBlockM10kernelNameERKNSt3__112basic_stringIcNS2_11char_traitsIcEENS2_9allocatorIcEEEEj, 
                       __ZNK2gc3est14ExtractDiagJtJ10kernelNameEj, __ZNK2gc3est14FactorJacobian4typeEv, 
                       __ZNK2gc3est14SchurLinearize14createScheduleEv, __ZNK2gc3est15DenseLDLTSolver14createScheduleEv, 
                       __ZNK2gc3est15FactorGradients12gradientTypeERKNSt3__112basic_stringIcNS2_11char_traitsIcEENS2_9allocatorIcEEEE, 
                       __ZNK2gc3est15FactorGradients14createScheduleEv, __ZNK2gc3est15FactorJacobians14createScheduleEv, 
                       __ZNK2gc3est15FactorJacobians2atEm, __ZNK2gc3est15FactorJacobians3endEv, 
                       __ZNK2gc3est15FactorJacobians4sizeEv, __ZNK2gc3est15FactorJacobians5beginEv, 
                       __ZNK2gc3est15FactorJacobians6factorEv, __ZNK2gc3est15FactorJacobians8orderingEv, 
                       __ZNK2gc3est15FactorJacobiansixEm, __ZNK2gc3est15VariableOffsets21numberOfFreeVariablesEv, 
                       __ZNK2gc3est15VariableOffsets4nameEv, __ZNK2gc3est15VariableOffsets6bufferEv, 
                       __ZNK2gc3est16BlockMatrixArray18coordinatesToIndexEjj, __ZNK2gc3est16BlockMatrixArray6blocksEv, 
                       __ZNK2gc3est16BlockMatrixArray6matrixEjj, __ZNK2gc3est16BlockOrderingSet3endEv, 
                       __ZNK2gc3est16BlockOrderingSet4findERKNSt3__112basic_stringIcNS2_11char_traitsIcEENS2_9allocatorIcEEEE, 
                       __ZNK2gc3est16BlockOrderingSet4sizeEv, __ZNK2gc3est16BlockOrderingSet5beginEv, 
                       __ZNK2gc3est16CostFunctionArgs10selectArgsERKNSt3__16vectorIjNS2_9allocatorIjEEEE, 
                       __ZNK2gc3est16CostFunctionArgs7adjointERKNSt3__16vectorIjNS2_9allocatorIjEEEENS_4ExprERKNS_4lang11TapedResultE, 
                       __ZNK2gc3est16CostFunctionArgs7adjointERKNSt3__16vectorIjNS2_9allocatorIjEEEENS_4ExprERKNS_4lang11TapedResultENSA_15TypedMatrixViewINS2_17integral_constantIbLb0EEEEE, 
                       __ZNK2gc3est16CostFunctionArgs9dimensionERKNSt3__16vectorIjNS2_9allocatorIjEEEE, 
                       __ZNK2gc3est16DenseBlockMatrix4sizeEv, __ZNK2gc3est16DenseBlockMatrix6bufferEv, 
                       __ZNK2gc3est16DenseBlockMatrix8copyFromEPvj, __ZNK2gc3est16DenseBlockMatrix8tripletsEjj, 
                       __ZNK2gc3est16DenseBlockMatrix9transposeEv, __ZNK2gc3est16SparseLDLTSolver14createScheduleEv, 
                       __ZNK2gc3est16VariableGroupSet10findOffsetERKNSt3__112basic_stringIcNS2_11char_traitsIcEENS2_9allocatorIcEEEENS_4util10TaggedBoolINS0_14ReducedOnlyTagEEE, 
                       __ZNK2gc3est16VariableGroupSet19VariableNameCompareclERKNSt3__112basic_stringIcNS3_11char_traitsIcEENS3_9allocatorIcEEEESB_, 
                       __ZNK2gc3est16VariableGroupSet20makeArgumentGroupingERKNS0_19ArgumentInformationE, 
                       __ZNK2gc3est16VariableGroupSet4findERKNSt3__112basic_stringIcNS2_11char_traitsIcEENS2_9allocatorIcEEEE, 
                       __ZNK2gc3est16VariableGroupSet9findGroupERKNSt3__112basic_stringIcNS2_11char_traitsIcEENS2_9allocatorIcEEEE, 
                       __ZNK2gc3est16VariableGroupSet9findIndexERKNSt3__112basic_stringIcNS2_11char_traitsIcEENS2_9allocatorIcEEEE, 
                       __ZNK2gc3est17FactorOrderingSet3endEv, __ZNK2gc3est17FactorOrderingSet4findERKNSt3__112basic_stringIcNS2_11char_traitsIcEENS2_9allocatorIcEEEE, 
                       __ZNK2gc3est17FactorOrderingSet4sizeEv, __ZNK2gc3est17FactorOrderingSet5beginEv, 
                       __ZNK2gc3est17IterationCallbackclEi, __ZNK2gc3est17SymmetrizeDiagJtJ10kernelNameEj, 
                       __ZNK2gc3est19SchurBackSubstitute14createScheduleEv, __ZNK2gc3est20BitmappedBlockMatrix19computeBlockOffsetsERKNS0_18BlockAdjacencyListERNSt3__16vectorIjNS_15BufferAllocatorIjEEEERj, 
                       __ZNK2gc3est20BitmappedBlockMatrix4sizeEv, __ZNK2gc3est20BitmappedBlockMatrix6bufferEv, 
                       __ZNK2gc3est20BitmappedBlockMatrix8copyFromEPvj, __ZNK2gc3est20BitmappedBlockMatrix8tripletsEjj, 
                       __ZNK2gc3est20BitmappedBlockMatrix9transposeEv, __ZNK2gc3est20TerminationCondition9convergedEiRKNS0_11VariableMapERNSt3__113basic_ostreamIcNS5_11char_traitsIcEEEE, 
                       __ZNK2gc3est20TrustRegionMinimizer18linearizationPointEv, 
                       __ZNK2gc3est22EvaluateBatchGradients10kernelNameERKNSt3__112basic_stringIcNS2_11char_traitsIcEENS2_9allocatorIcEEEEj, 
                       __ZNK2gc3est22IsotropicGaussianNoise12whitenVectorENS_4ExprERKNS_4lang6BufferENS3_13ConstVariableE, 
                       __ZNK2gc3est22ModelErrorCostFunction6traitsEv, __ZNK2gc3est22ModelErrorCostFunction8evaluateERKNSt3__16vectorINS_4lang13ConstVariableENS2_9allocatorIS5_EEEERKNS3_IjNS6_IjEEEERKNS4_6BufferENS_4ExprESH_, 
                       __ZNK2gc3est24AnisotropicGaussianNoise12whitenVectorENS_4ExprERKNS_4lang6BufferENS3_13ConstVariableE, 
                       __ZNK2gc3est24CompressedRowBlockMatrix23computeRowColumnOffsetsERKNS0_18BlockAdjacencyListERNSt3__16vectorIjNS_15BufferAllocatorIjEEEESA_, 
                       __ZNK2gc3est24CompressedRowBlockMatrix4sizeEv, __ZNK2gc3est24CompressedRowBlockMatrix6bufferEv, 
                       __ZNK2gc3est24CompressedRowBlockMatrix8copyFromEPvj, __ZNK2gc3est24CompressedRowBlockMatrix8tripletsEjj, 
                       __ZNK2gc3est24CompressedRowBlockMatrix9transposeEv, __ZNK2gc3est24LeastSquaresCostFunction6traitsEv, 
                       __ZNK2gc3est24LeastSquaresCostFunction7epsilonERKNSt3__16vectorINS_4lang13ConstVariableENS2_9allocatorIS5_EEEERKNS3_IjNS6_IjEEEENS_4ExprERKNS4_6BufferE, 
                       __ZNK2gc3est25ApplyJacobiPreconditioner10kernelNameERKNSt3__112basic_stringIcNS2_11char_traitsIcEENS2_9allocatorIcEEEE, 
                       __ZNK2gc3est30ApplyAdditiveLMDampingExplicit10kernelNameEj, 
                       __ZNK2gc3est30ApplyAdditiveLMDampingImplicit10kernelNameERKNSt3__112basic_stringIcNS2_11char_traitsIcEENS2_9allocatorIcEEEE, 
                       __ZNK2gc3est30ApplyBlockJacobiPreconditioner10kernelNameERKNSt3__112basic_stringIcNS2_11char_traitsIcEENS2_9allocatorIcEEEE, 
                       __ZNK2gc3est32BatchGradientsLinearizationPoint14createScheduleEv, 
                       __ZNK2gc3est33ApplyAdditiveLMDampingToDiagonals10kernelNameERKNSt3__112basic_stringIcNS2_11char_traitsIcEENS2_9allocatorIcEEEE, 
                       __ZNK2gc3est33ExplicitHessianLinearizationPoint14createScheduleEv, 
                       __ZNK2gc3est33ImplicitHessianLinearizationPoint14createScheduleEv, 
                       __ZNK2gc3est36ApplyMultiplicativeLMDampingExplicit10kernelNameEj, 
                       __ZNK2gc3est36ApplyMultiplicativeLMDampingImplicit10kernelNameERKNSt3__112basic_stringIcNS2_11char_traitsIcEENS2_9allocatorIcEEEE, 
                       __ZNK2gc3est39ApplyMultiplicativeLMDampingToDiagonals10kernelNameERKNSt3__112basic_stringIcNS2_11char_traitsIcEENS2_9allocatorIcEEEE, 
                       __ZNK2gc3est3SE35blockERKNS_4ExprENS_4lang6BufferE, __ZNK2gc3est3SE36blocksENSt3__110shared_ptrINS_12BufferHandleEEENS_4ExprENS_4lang6BufferERKNS2_8functionIFS6_S6_EEE, 
                       __ZNK2gc3est3SE36normSqENS_4lang13ConstVariableE, __ZNK2gc3est3SE37boxPlusERKNS_4lang13TypedVariableILNS2_13eVariableTypeE1EEENS2_8VariableE, 
                       __ZNK2gc3est3SO35blockERKNS_4ExprENS_4lang6BufferE, __ZNK2gc3est3SO36blocksENSt3__110shared_ptrINS_12BufferHandleEEENS_4ExprENS_4lang6BufferERKNS2_8functionIFS6_S6_EEE, 
                       __ZNK2gc3est3SO36normSqENS_4lang13ConstVariableE, __ZNK2gc3est3SO37boxPlusERKNS_4lang13TypedVariableILNS2_13eVariableTypeE1EEENS2_8VariableE, 
                       __ZNK2gc3est4Adam14createScheduleEv, __ZNK2gc3est6Factor14createScheduleEv, 
                       __ZNK2gc3est6Factor18argumentIsVariadicEj, __ZNK2gc3est6Factor23argumentGroupIsVariadicEj, 
                       __ZNK2gc3est6Scalar5blockERKNS_4ExprENS_4lang6BufferE, __ZNK2gc3est6Scalar6blocksENSt3__110shared_ptrINS_12BufferHandleEEENS_4ExprENS_4lang6BufferERKNS2_8functionIFS6_S6_EEE, 
                       __ZNK2gc3est6Scalar6normSqENS_4lang13ConstVariableE, __ZNK2gc3est6Scalar7boxPlusERKNS_4lang13TypedVariableILNS2_13eVariableTypeE1EEENS2_8VariableE, 
                       __ZNK2gc3est6Vector5blockERKNS_4ExprENS_4lang6BufferE, __ZNK2gc3est6Vector6blocksENSt3__110shared_ptrINS_12BufferHandleEEENS_4ExprENS_4lang6BufferERKNS2_8functionIFS6_S6_EEE, 
                       __ZNK2gc3est6Vector6normSqENS_4lang13ConstVariableE, __ZNK2gc3est6Vector7boxPlusERKNS_4lang13TypedVariableILNS2_13eVariableTypeE1EEENS2_8VariableE, 
                       __ZNK2gc3est7InvertM10kernelNameERKNSt3__112basic_stringIcNS2_11char_traitsIcEENS2_9allocatorIcEEEE, 
                       __ZNK2gc3est8Variable14createScheduleEv, __ZNK2gc3est8Variable14elementExtentsEv, 
                       __ZNK2gc3est8Variable6blocksEv, __ZNK2gc3est8Variable6bufferEv, 
                       __ZNK2gc3est8Variable7norm2SqEv, __ZNK2gc3est9BufferMap12infinityNormEv, 
                       __ZNK2gc3est9BufferMap3dotERKS1_, __ZNK2gc3est9BufferMap3maxEv, 
                       __ZNK2gc3est9BufferMap5cloneENS_4util10TaggedBoolINS_11DeepCopyTagEEE, 
                       __ZNK2gc3est9BufferMap5norm2Ev, __ZNK2gc3est9BufferMap7norm2SqEv, 
                       __ZNK2gc3est9Minimizer12SolveSummary15actualDeltaCostERKNS2_12IterationLogE, 
                       __ZNK2gc3est9Minimizer12SolveSummary15convergedInCostERKNS1_12SolveOptionsERKNS2_12IterationLogE, 
                       __ZNK2gc3est9Minimizer12SolveSummary15targetDeltaCostERKNS1_12SolveOptionsERKNS2_12IterationLogE, 
                       __ZNK2gc3est9Minimizer12SolveSummary17targetCostReachedERKNS1_12SolveOptionsERKNS2_12IterationLogE, 
                       __ZNK2gc3est9Minimizer12SolveSummary18actualGradientNormERKNS2_12IterationLogE, 
                       __ZNK2gc3est9Minimizer12SolveSummary18targetGradientNormERKNS1_12SolveOptionsERKNS2_12IterationLogE, 
                       __ZNK2gc3est9Minimizer12SolveSummary19convergedInGradientERKNS1_12SolveOptionsERKNS2_12IterationLogE, 
                       __ZNK2gc3est9Minimizer12SolveSummary21actualDeltaParametersERKNS2_12IterationLogE, 
                       __ZNK2gc3est9Minimizer12SolveSummary21convergedInParametersERKNS1_12SolveOptionsERKNS2_12IterationLogE, 
                       __ZNK2gc3est9Minimizer12SolveSummary21targetDeltaParametersERKNS1_12SolveOptionsERKNS2_12IterationLogE, 
                       __ZNK2gc3est9Minimizer12SolveSummary23printSingleIterationLogERNSt3__113basic_ostreamIcNS3_11char_traitsIcEEEEjRKNS1_12SolveOptionsERKNS2_12IterationLogE, 
                       __ZNK2gc3est9Minimizer12SolveSummary5printERNSt3__113basic_ostreamIcNS3_11char_traitsIcEEEERKNS1_12SolveOptionsE, 
                       __ZNK2gc3ops12GradientTape10isWatchingENS0_3VarE, __ZNK2gc3ops12GradientTape17requiresGradientsENS0_3VarE, 
                       __ZNK2gc3ops18ScopedGradientTape9gradientsENS0_3VarENSt3__16vectorIS2_NS3_9allocatorIS2_EEEE, 
                       __ZNK2gc3ops18ScopedGradientTape9gradientsENS0_3VarES2_, __ZNK2gc3ops3Var2opEv, 
                       __ZNK2gc3ops3Var3opsEv, __ZNK2gc3ops3Var4copyEv, __ZNK2gc3ops5Graph19topologicalTraverseENSt3__18functionIFbNS2_10shared_ptrINS0_6OpBaseEEEEEE, 
                       __ZNK2gc3ops5Graph4backEv, __ZNK2gc3ops5Graph8childrenENSt3__110shared_ptrINS0_6OpBaseEEE, 
                       __ZNK2gc3ops5Graph8traverseENSt3__18functionIFbNS2_10shared_ptrINS0_6OpBaseEEEEEE, 
                       __ZNK2gc3ops6Module10dumpGraphsERKNS0_18DumpOpGraphOptionsE, 
                       __ZNK2gc3ops6Module10dumpGraphsEv, __ZNK2gc3ops6Module13addGeneratorsEv, 
                       __ZNK2gc3ops6Module15defaultScheduleEv, __ZNK2gc3ops6Module16fullFunctionNameERKNSt3__112basic_stringIcNS2_11char_traitsIcEENS2_9allocatorIcEEEE, 
                       __ZNK2gc3ops6OpBase7buffersEv, __ZNK2gc4Expr4typeEv, __ZNK2gc4ExpranERKS0_, 
                       __ZNK2gc4ExprcoEv, __ZNK2gc4ExprdvERKS0_, __ZNK2gc4ExpreoERKS0_, 
                       __ZNK2gc4ExpreqERKS0_, __ZNK2gc4ExprgeERKS0_, __ZNK2gc4ExprgtERKS0_, 
                       __ZNK2gc4ExprleERKS0_, __ZNK2gc4ExprlsERKS0_, __ZNK2gc4ExprltERKS0_, 
                       __ZNK2gc4ExprmiERKS0_, __ZNK2gc4ExprmlERKS0_, __ZNK2gc4ExprneERKS0_, 
                       __ZNK2gc4ExprngEv, __ZNK2gc4ExprorERKS0_, __ZNK2gc4ExprplERKS0_, 
                       __ZNK2gc4ExprrmERKS0_, __ZNK2gc4ExprrsERKS0_, __ZNK2gc4Tile10hasThreadsEv, 
                       __ZNK2gc4Tile12blockExtentsEv, __ZNK2gc4Tile13threadExtentsEv, 
                       __ZNK2gc4Tile14tileDimensionsEv, __ZNK2gc4Tile17hasBlockInvariantEv, 
                       __ZNK2gc4Tile18hasThreadInvariantEv, __ZNK2gc4Tile5rangeEv, 
                       __ZNK2gc4lang10ScopedTape6leavesEv, __ZNK2gc4lang10ScopedTape9terminalsEv, 
                       __ZNK2gc4lang11TapedResult16adjointUncheckedENS0_13ConstVariableENS_4ExprE, 
                       __ZNK2gc4lang11TapedResult16adjointUncheckedERKNSt3__16vectorINS0_13ConstVariableENS2_9allocatorIS4_EEEENS_4ExprE, 
                       __ZNK2gc4lang11TapedResult5valueEv, __ZNK2gc4lang11TapedResult7adjointENS0_13ConstVariableENS_4ExprE, 
                       __ZNK2gc4lang11TapedResult7adjointERKNSt3__16vectorINS0_13ConstVariableENS2_9allocatorIS4_EEEENS_4ExprE, 
                       __ZNK2gc4lang13ConstVariable16entrywiseProductES1_, __ZNK2gc4lang13ConstVariable4castE17loopkit_rt_type_t, 
                       __ZNK2gc4lang13ConstVariable6normSqEv, __ZNK2gc4lang13ConstVariablecvNS0_8VariableEEv, 
                       __ZNK2gc4lang13TypedVariableILNS0_13eVariableTypeE0EE4castERK17loopkit_rt_type_t, 
                       __ZNK2gc4lang13TypedVariableILNS0_13eVariableTypeE0EE4exprEv, 
                       __ZNK2gc4lang13TypedVariableILNS0_13eVariableTypeE0EE6handleEv, 
                       __ZNK2gc4lang13TypedVariableILNS0_13eVariableTypeE0EEanERKS3_, 
                       __ZNK2gc4lang13TypedVariableILNS0_13eVariableTypeE0EEcoEv, 
                       __ZNK2gc4lang13TypedVariableILNS0_13eVariableTypeE0EEdvERKS3_, 
                       __ZNK2gc4lang13TypedVariableILNS0_13eVariableTypeE0EEeoERKS3_, 
                       __ZNK2gc4lang13TypedVariableILNS0_13eVariableTypeE0EEeqERKS3_, 
                       __ZNK2gc4lang13TypedVariableILNS0_13eVariableTypeE0EEgeERKS3_, 
                       __ZNK2gc4lang13TypedVariableILNS0_13eVariableTypeE0EEgtERKS3_, 
                       __ZNK2gc4lang13TypedVariableILNS0_13eVariableTypeE0EEleERKS3_, 
                       __ZNK2gc4lang13TypedVariableILNS0_13eVariableTypeE0EElsERKS3_, 
                       __ZNK2gc4lang13TypedVariableILNS0_13eVariableTypeE0EEltERKS3_, 
                       __ZNK2gc4lang13TypedVariableILNS0_13eVariableTypeE0EEmiERKS3_, 
                       __ZNK2gc4lang13TypedVariableILNS0_13eVariableTypeE0EEmlERKS3_, 
                       __ZNK2gc4lang13TypedVariableILNS0_13eVariableTypeE0EEneERKS3_, 
                       __ZNK2gc4lang13TypedVariableILNS0_13eVariableTypeE0EEngEv, 
                       __ZNK2gc4lang13TypedVariableILNS0_13eVariableTypeE0EEorERKS3_, 
                       __ZNK2gc4lang13TypedVariableILNS0_13eVariableTypeE0EEplERKS3_, 
                       __ZNK2gc4lang13TypedVariableILNS0_13eVariableTypeE0EErmERKS3_, 
                       __ZNK2gc4lang13TypedVariableILNS0_13eVariableTypeE0EErsERKS3_, 
                       __ZNK2gc4lang13TypedVariableILNS0_13eVariableTypeE1EE10asDiagonalEv, 
                       __ZNK2gc4lang13TypedVariableILNS0_13eVariableTypeE1EE11leftColumnsEj, 
                       __ZNK2gc4lang13TypedVariableILNS0_13eVariableTypeE1EE12rightColumnsEj, 
                       __ZNK2gc4lang13TypedVariableILNS0_13eVariableTypeE1EE13entrywiseSqrtEv, 
                       __ZNK2gc4lang13TypedVariableILNS0_13eVariableTypeE1EE14sameDimensionsEjj, 
                       __ZNK2gc4lang13TypedVariableILNS0_13eVariableTypeE1EE16entrywiseProductERKS3_, 
                       __ZNK2gc4lang13TypedVariableILNS0_13eVariableTypeE1EE17entrywiseQuotientERKS3_, 
                       __ZNK2gc4lang13TypedVariableILNS0_13eVariableTypeE1EE1tEv, 
                       __ZNK2gc4lang13TypedVariableILNS0_13eVariableTypeE1EE3dotERKS3_, 
                       __ZNK2gc4lang13TypedVariableILNS0_13eVariableTypeE1EE3maxEv, 
                       __ZNK2gc4lang13TypedVariableILNS0_13eVariableTypeE1EE3sumEv, 
                       __ZNK2gc4lang13TypedVariableILNS0_13eVariableTypeE1EE4castERK17loopkit_rt_type_t, 
                       __ZNK2gc4lang13TypedVariableILNS0_13eVariableTypeE1EE4headEj, 
                       __ZNK2gc4lang13TypedVariableILNS0_13eVariableTypeE1EE4normEv, 
                       __ZNK2gc4lang13TypedVariableILNS0_13eVariableTypeE1EE4rowsEjj, 
                       __ZNK2gc4lang13TypedVariableILNS0_13eVariableTypeE1EE4rowsEv, 
                       __ZNK2gc4lang13TypedVariableILNS0_13eVariableTypeE1EE4tailEj, 
                       __ZNK2gc4lang13TypedVariableILNS0_13eVariableTypeE1EE5crossERKS3_, 
                       __ZNK2gc4lang13TypedVariableILNS0_13eVariableTypeE1EE5traceEv, 
                       __ZNK2gc4lang13TypedVariableILNS0_13eVariableTypeE1EE6columnENS_4ExprE, 
                       __ZNK2gc4lang13TypedVariableILNS0_13eVariableTypeE1EE6columnEj, 
                       __ZNK2gc4lang13TypedVariableILNS0_13eVariableTypeE1EE6handleEv, 
                       __ZNK2gc4lang13TypedVariableILNS0_13eVariableTypeE1EE6liftedENS_4ExprEj, 
                       __ZNK2gc4lang13TypedVariableILNS0_13eVariableTypeE1EE6normSqEv, 
                       __ZNK2gc4lang13TypedVariableILNS0_13eVariableTypeE1EE7columnsEv, 
                       __ZNK2gc4lang13TypedVariableILNS0_13eVariableTypeE1EE7loweredEjj, 
                       __ZNK2gc4lang13TypedVariableILNS0_13eVariableTypeE1EE7segmentENS_4ExprEj, 
                       __ZNK2gc4lang13TypedVariableILNS0_13eVariableTypeE1EE7segmentEjj, 
                       __ZNK2gc4lang13TypedVariableILNS0_13eVariableTypeE1EE8diagonalEv, 
                       __ZNK2gc4lang13TypedVariableILNS0_13eVariableTypeE1EE8elementsEv, 
                       __ZNK2gc4lang13TypedVariableILNS0_13eVariableTypeE1EE9entrywiseERKNSt3__18functionIFNS0_6ScalarERKNS1_ILS2_0EEEEEE, 
                       __ZNK2gc4lang13TypedVariableILNS0_13eVariableTypeE1EEclENS_4ExprES4_, 
                       __ZNK2gc4lang13TypedVariableILNS0_13eVariableTypeE1EEclEjj, 
                       __ZNK2gc4lang13TypedVariableILNS0_13eVariableTypeE1EEixENS_4ExprE, 
                       __ZNK2gc4lang13TypedVariableILNS0_13eVariableTypeE1EEixEj, 
                       __ZNK2gc4lang13TypedVariableILNS0_13eVariableTypeE1EEmiERKS3_, 
                       __ZNK2gc4lang13TypedVariableILNS0_13eVariableTypeE1EEmlERKS3_, 
                       __ZNK2gc4lang13TypedVariableILNS0_13eVariableTypeE1EEngEv, 
                       __ZNK2gc4lang13TypedVariableILNS0_13eVariableTypeE1EEplERKS3_, 
                       __ZNK2gc4lang13TypedVariableILNS0_13eVariableTypeE2EE12adjointTimesERKNS0_3so3E, 
                       __ZNK2gc4lang13TypedVariableILNS0_13eVariableTypeE2EE3logEv, 
                       __ZNK2gc4lang13TypedVariableILNS0_13eVariableTypeE2EE6matrixEv, 
                       __ZNK2gc4lang13TypedVariableILNS0_13eVariableTypeE2EE7adjointEv, 
                       __ZNK2gc4lang13TypedVariableILNS0_13eVariableTypeE2EE7inverseEv, 
                       __ZNK2gc4lang13TypedVariableILNS0_13eVariableTypeE2EEmlERKNS1_ILS2_1EEE, 
                       __ZNK2gc4lang13TypedVariableILNS0_13eVariableTypeE2EEmlERKS3_, 
                       __ZNK2gc4lang13TypedVariableILNS0_13eVariableTypeE3EE12adjointTimesERKNS0_3se3E, 
                       __ZNK2gc4lang13TypedVariableILNS0_13eVariableTypeE3EE1REv, 
                       __ZNK2gc4lang13TypedVariableILNS0_13eVariableTypeE3EE1tEv, 
                       __ZNK2gc4lang13TypedVariableILNS0_13eVariableTypeE3EE3logEv, 
                       __ZNK2gc4lang13TypedVariableILNS0_13eVariableTypeE3EE7adjointEv, 
                       __ZNK2gc4lang13TypedVariableILNS0_13eVariableTypeE3EE7inverseEv, 
                       __ZNK2gc4lang13TypedVariableILNS0_13eVariableTypeE3EEmlERKNS1_ILS2_1EEE, 
                       __ZNK2gc4lang13TypedVariableILNS0_13eVariableTypeE3EEmlERKS3_, 
                       __ZNK2gc4lang13VariableArrayINS0_13TypedVariableILNS0_13eVariableTypeE2EEEE5indexENS_4ExprE, 
                       __ZNK2gc4lang13VariableArrayINS0_13TypedVariableILNS0_13eVariableTypeE2EEEEixENS_4ExprE, 
                       __ZNK2gc4lang13VariableArrayINS0_13TypedVariableILNS0_13eVariableTypeE3EEEE5indexENS_4ExprE, 
                       __ZNK2gc4lang13VariableArrayINS0_13TypedVariableILNS0_13eVariableTypeE3EEEEixENS_4ExprE, 
                       __ZNK2gc4lang13VariableArrayINS0_6MatrixEE5indexENS_4ExprE, 
                       __ZNK2gc4lang13VariableArrayINS0_6MatrixEEixENS_4ExprE, __ZNK2gc4lang13VariableArrayINS0_6ScalarEE5indexENS_4ExprE, 
                       __ZNK2gc4lang13VariableArrayINS0_6ScalarEEixENS_4ExprE, __ZNK2gc4lang13VariableArrayINS0_6VectorEE5indexENS_4ExprE, 
                       __ZNK2gc4lang13VariableArrayINS0_6VectorEEixENS_4ExprE, __ZNK2gc4lang3est11JacobianSet26MatrixFreeJacobianInstanceclENS_4ExprES4_, 
                       __ZNK2gc4lang3est11JacobianSetclEjNS_4ExprES3_, __ZNK2gc4lang3est11VariableSet20makeCostFunctionArgsERKNS1_6FactorERKNS_3est16ArgumentGroupingENS_4ExprENS_4util10TaggedBoolINS1_21RequiresJacobians_TagEEE, 
                       __ZNK2gc4lang3est11VariableSet20makeCostFunctionArgsERKNS1_6FactorERKNS_3est19ArgumentInformationENS_4ExprENS_4util10TaggedBoolINS1_21RequiresJacobians_TagEEE, 
                       __ZNK2gc4lang3est12CostFunction12evaluateLossENS0_13ConstVariableE, 
                       __ZNK2gc4lang3est12CostFunction13computeWeightENS0_13ConstVariableE, 
                       __ZNK2gc4lang3est12CostFunction7epsilonERKNSt3__16vectorINS0_13ConstVariableENS3_9allocatorIS5_EEEERKNS4_IjNS6_IjEEEENS_4ExprE, 
                       __ZNK2gc4lang3est13BlockOrdering6boundsERKNS_4ExprE, __ZNK2gc4lang3est13BlockOrdering9rowColumnERKNS_4ExprE, 
                       __ZNK2gc4lang3est14FactorOrdering10isVariadicEv, __ZNK2gc4lang3est14FactorOrdering10variableIDENS_4ExprES3_, 
                       __ZNK2gc4lang3est14FactorOrdering13forEachFactorENS_4ExprERKNSt3__18functionIFvS3_EEE, 
                       __ZNK2gc4lang3est14FactorOrdering16sortedToStandardENS_4ExprE, 
                       __ZNK2gc4lang3est14FactorOrdering16standardToSortedENS_4ExprERKNSt3__18functionIFvS3_EEE, 
                       __ZNK2gc4lang3est14FactorOrdering19forEachFactorSortedENS_4ExprERKNSt3__18functionIFvS3_S3_EEE, 
                       __ZNK2gc4lang3est16DenseBlockMatrix10nextColumnENS_4ExprES3_, 
                       __ZNK2gc4lang3est16DenseBlockMatrix6boundsENS_4ExprE, __ZNK2gc4lang3est16DenseBlockMatrix8positionENS_4ExprES3_, 
                       __ZNK2gc4lang3est16DenseBlockMatrix9blockSizeEv, __ZNK2gc4lang3est16DenseBlockMatrixclENS_4ExprE, 
                       __ZNK2gc4lang3est16DenseBlockMatrixclENS_4ExprES3_, __ZNK2gc4lang3est18MatrixFreeJacobianclENS_4ExprES3_, 
                       __ZNK2gc4lang3est19BasicFactorOrdering10isVariadicEv, __ZNK2gc4lang3est19BasicFactorOrdering10variableIDENS_4ExprES3_, 
                       __ZNK2gc4lang3est19BasicFactorOrdering13forEachFactorENS_4ExprERKNSt3__18functionIFvS3_EEE, 
                       __ZNK2gc4lang3est19BasicFactorOrdering16sortedToStandardENS_4ExprE, 
                       __ZNK2gc4lang3est19BasicFactorOrdering16standardToSortedENS_4ExprERKNSt3__18functionIFvS3_EEE, 
                       __ZNK2gc4lang3est19BasicFactorOrdering19forEachFactorSortedENS_4ExprERKNSt3__18functionIFvS3_S3_EEE, 
                       __ZNK2gc4lang3est19BasicFactorOrdering6boundsERKNS_4ExprE, 
                       __ZNK2gc4lang3est20BitmappedBlockMatrix10nextColumnENS_4ExprES3_, 
                       __ZNK2gc4lang3est20BitmappedBlockMatrix6boundsENS_4ExprE, 
                       __ZNK2gc4lang3est20BitmappedBlockMatrix8positionENS_4ExprES3_, 
                       __ZNK2gc4lang3est20BitmappedBlockMatrix9blockSizeEv, __ZNK2gc4lang3est20BitmappedBlockMatrixclENS_4ExprE, 
                       __ZNK2gc4lang3est20BitmappedBlockMatrixclENS_4ExprES3_, __ZNK2gc4lang3est22VariadicFactorOrdering10isVariadicEv, 
                       __ZNK2gc4lang3est22VariadicFactorOrdering10variableIDENS_4ExprES3_, 
                       __ZNK2gc4lang3est22VariadicFactorOrdering13forEachFactorENS_4ExprERKNSt3__18functionIFvS3_EEE, 
                       __ZNK2gc4lang3est22VariadicFactorOrdering16sortedToStandardENS_4ExprE, 
                       __ZNK2gc4lang3est22VariadicFactorOrdering16standardToSortedENS_4ExprERKNSt3__18functionIFvS3_EEE, 
                       __ZNK2gc4lang3est22VariadicFactorOrdering19forEachFactorSortedENS_4ExprERKNSt3__18functionIFvS3_S3_EEE, 
                       __ZNK2gc4lang3est22VariadicFactorOrdering6boundsERKNS_4ExprE, 
                       __ZNK2gc4lang3est24CompressedRowBlockMatrix10nextColumnENS_4ExprES3_, 
                       __ZNK2gc4lang3est24CompressedRowBlockMatrix6boundsENS_4ExprE, 
                       __ZNK2gc4lang3est24CompressedRowBlockMatrix8positionENS_4ExprES3_, 
                       __ZNK2gc4lang3est24CompressedRowBlockMatrix9blockSizeEv, __ZNK2gc4lang3est24CompressedRowBlockMatrixclENS_4ExprE, 
                       __ZNK2gc4lang3est24CompressedRowBlockMatrixclENS_4ExprES3_, 
                       __ZNK2gc4lang3est6Factor11VariableIDs17forEachVariableIDERKNSt3__18functionIFvNS_4ExprEEEE, 
                       __ZNK2gc4lang3est6Factor11variableIDsEjNS_4ExprE, __ZNK2gc4lang3se33expENS_11eHandednessE, 
                       __ZNK2gc4lang3se37adjointEv, __ZNK2gc4lang3so33expENS_11eHandednessE, 
                       __ZNK2gc4lang3so37adjointEv, __ZNK2gc4lang4Tape10variableIDENS0_13ConstVariableE, 
                       __ZNK2gc4lang4Tape10variableIDENSt3__110shared_ptrINS_12BufferHandleEEE, 
                       __ZNK2gc4lang4Tape11hasVariableENS0_13ConstVariableE, __ZNK2gc4lang4Tape11hasVariableENSt3__110shared_ptrINS_12BufferHandleEEE, 
                       __ZNK2gc4lang4Tape11isRecordingEv, __ZNK2gc4lang4Tape15findDescendantsEm, 
                       __ZNK2gc4lang4Tape17propagateAdjointsENS0_13ConstVariableERKNS0_13TypedVariableILNS0_13eVariableTypeE1EEE, 
                       __ZNK2gc4lang4Tape17propagateAdjointsEmRKNS0_13TypedVariableILNS0_13eVariableTypeE1EEE, 
                       __ZNK2gc4lang4Tape3wrtENS0_13ConstVariableE, __ZNK2gc4lang4Tape6leavesEv, 
                       __ZNK2gc4lang4Tape9terminalsEv, __ZNK2gc4lang4Tile10blockIndexEv, 
                       __ZNK2gc4lang4Tile10laneExtentEv, __ZNK2gc4lang4Tile10rangeIndexEv, 
                       __ZNK2gc4lang4Tile11blockExtentEv, __ZNK2gc4lang4Tile11threadIndexEv, 
                       __ZNK2gc4lang4Tile12blockExtentsEv, __ZNK2gc4lang4Tile12threadExtentEv, 
                       __ZNK2gc4lang4Tile13blockPositionEv, __ZNK2gc4lang4Tile13threadExtentsEv, 
                       __ZNK2gc4lang4Tile14threadPositionEv, __ZNK2gc4lang4Tile16registeredBufferEv, 
                       __ZNK2gc4lang4Tile5isGPUEv, __ZNK2gc4lang4Tile5rangeEv, __ZNK2gc4lang4Tile9laneIndexEv, 
                       __ZNK2gc4lang5Index8positionERKNS0_5RangeE, __ZNK2gc4lang5Range10compatibleERKS1_RNS_4ExprE, 
                       __ZNK2gc4lang6Buffer11blockOffsetERKNS0_6VectorE, __ZNK2gc4lang6Buffer11totalExtentEv, 
                       __ZNK2gc4lang6Buffer14assertInBoundsERKNS_4ExprE, __ZNK2gc4lang6Buffer3minEj, 
                       __ZNK2gc4lang6Buffer6extentEj, __ZNK2gc4lang6Buffer6matrixEjjNS_4ExprE, 
                       __ZNK2gc4lang6Buffer6strideEj, __ZNK2gc4lang6Buffer6vectorEjNS_4ExprE, 
                       __ZNK2gc4lang6BufferclENS0_5IndexE, __ZNK2gc4lang6BufferclENS_4ExprE, 
                       __ZNK2gc4lang6BufferclERKNS0_6VectorE, __ZNK2gc4lang6BufferixENS0_5IndexE, 
                       __ZNK2gc4lang6BufferixENS_4ExprE, __ZNK2gc4lang6String3endEv, 
                       __ZNK2gc4lang6String5beginEv, __ZNK2gc4lang6String8elementsEv, 
                       __ZNK2gc4lang6camera11ImageBounds8containsERKNS0_13TypedVariableILNS0_13eVariableTypeE0EEES7_, 
                       __ZNK2gc4lang6camera18Kannala4Distortion7distortERKNS0_13TypedVariableILNS0_13eVariableTypeE1EEE, 
                       __ZNK2gc4lang6camera18Kannala4Distortion7distortERKNS0_13TypedVariableILNS0_13eVariableTypeE1EEERNS0_6ScalarE, 
                       __ZNK2gc4lang6camera18Kannala4Distortion9undistortERKNS0_13TypedVariableILNS0_13eVariableTypeE1EEE, 
                       __ZNK2gc4lang6camera18Kannala4Distortion9undistortERKNS0_13TypedVariableILNS0_13eVariableTypeE1EEERNS0_6ScalarE, 
                       __ZNK2gc4lang6camera7Pinhole7projectERKNS0_13TypedVariableILNS0_13eVariableTypeE1EEE, 
                       __ZNK2gc4lang6camera7Pinhole9unprojectERKNS0_13TypedVariableILNS0_13eVariableTypeE1EEE, 
                       __ZNK2gc4lang8Variable4castE17loopkit_rt_type_t, __ZNK2gc4lang8Variable6normSqEv, 
                       __ZNK2gc4util15TargetLocations12scheduleFileEv, __ZNK2gc4util15TargetLocations17hasCustomScheduleEv, 
                       __ZNK2gc5Range4nameEv, __ZNK2gc5Range6extentEv, __ZNK2gc5Shape12blockExtentsEv, 
                       __ZNK2gc5Shape14elementExtentsEv, __ZNK2gc5Shape14requiresUpdateEv, 
                       __ZNK2gc5Shape14sameDimensionsERKS0_, __ZNK2gc5Shape4sizeEv, 
                       __ZNK2gc5Shape5rangeEv, __ZNK2gc5Shape6blocksEv, __ZNK2gc5ShapeeqERKS0_, 
                       __ZNK2gc5ShapeneERKS0_, __ZNK2gc6Buffer10copyToHostEv, __ZNK2gc6Buffer10dataBufferEv, 
                       __ZNK2gc6Buffer11sizeInBytesEv, __ZNK2gc6Buffer12blockExtentsEv, 
                       __ZNK2gc6Buffer14elementExtentsEv, __ZNK2gc6Buffer16dimensionsBufferEv, 
                       __ZNK2gc6Buffer18requiresCopyToHostEv, __ZNK2gc6Buffer20requiresReallocationEv, 
                       __ZNK2gc6Buffer22requiresDeviceAllocateEv, __ZNK2gc6Buffer26shouldBindDimensionsBufferEv, 
                       __ZNK2gc6Buffer4castE17loopkit_rt_type_t, __ZNK2gc6Buffer4nameEv, 
                       __ZNK2gc6Buffer4rowsEv, __ZNK2gc6Buffer4sizeEv, __ZNK2gc6Buffer4typeEv, 
                       __ZNK2gc6Buffer5rangeEv, __ZNK2gc6Buffer5shapeEv, __ZNK2gc6Buffer6blocksEv, 
                       __ZNK2gc6Buffer7columnsEv, __ZNK2gc6Buffer7hasDataEv, __ZNK2gc6Buffer7printToERNSt3__113basic_ostreamIcNS1_11char_traitsIcEEEE, 
                       __ZNK2gc6Buffer8ownsDataEv, __ZNK2gc6Extent8constantEv, __ZNK2gc6ExtentcvjEv, 
                       __ZNK2gc6Object4nameEv, __ZNK2gc6Object8scheduleEv, __ZNK2gc6Target11parallelismEv, 
                       __ZNK2gc6Target4asanEv, __ZNK2gc6Target5debugEv, __ZNK2gc6Target6customEv, 
                       __ZNK2gc6Target6deviceEv, __ZNK2gc6Target7assertsEv, __ZNK2gc6Target8platformEv, 
                       __ZNK2gc6Target9profilingEv, __ZNK2gc6Target9signpostsEv, 
                       __ZNK2gc7Extents2atEj, __ZNK2gc7Extents3endEv, __ZNK2gc7Extents4sizeEv, 
                       __ZNK2gc7Extents5beginEv, __ZNK2gc7Extents6strideEj, __ZNK2gc7Extents8constantEv, 
                       __ZNK2gc7Extents9canStrideEj, __ZNK2gc7Extents9dimensionEv, 
                       __ZNK2gc7ExtentseqERKS0_, __ZNK2gc7ExtentsixEj, __ZNK2gc7ExtentsltERKS0_, 
                       __ZNK2gc7ExtentsmlERKS0_, __ZNK2gc7ExtentsneERKS0_, __ZNK2gc7Library10hasProgramERKNSt3__112basic_stringIcNS1_11char_traitsIcEENS1_9allocatorIcEEEE, 
                       __ZNK2gc7Library3endEv, __ZNK2gc7Library4findERKNSt3__112basic_stringIcNS1_11char_traitsIcEENS1_9allocatorIcEEEE, 
                       __ZNK2gc7Library5beginEv, __ZNK2gc7Program3endEv, __ZNK2gc7Program4nameEv, 
                       __ZNK2gc7Program5beginEv, __ZNK2gc7Program8scheduleEv, __ZNK2gc8RangeMap4typeEv, 
                       __ZNK2gc9Generator11isScheduledEv, __ZNK2gc9Generator14createScheduleEv, 
                       __ZNK2gc9Generator4nameEv, __ZNK2gc9Generator7counterERNS_18PerformanceCounterE, 
                       __ZNK2gc9IRBuilder8compiledEPKNS_7IRScopeE, __ZNK2gc9Interface10Generators3endEv, 
                       __ZNK2gc9Interface10Generators4findERKNSt3__112basic_stringIcNS2_11char_traitsIcEENS2_9allocatorIcEEEE, 
                       __ZNK2gc9Interface10Generators4sizeEv, __ZNK2gc9Interface10Generators5beginEv, 
                       __ZNK2gc9Interface10GeneratorsixERKNSt3__112basic_stringIcNS2_11char_traitsIcEENS2_9allocatorIcEEEE, 
                       __ZNK2gc9Interface15defaultScheduleEv, __ZNK2gc9Interface7Buffers3endEv, 
                       __ZNK2gc9Interface7Buffers4findERKNSt3__112basic_stringIcNS2_11char_traitsIcEENS2_9allocatorIcEEEE, 
                       __ZNK2gc9Interface7Buffers4sizeEv, __ZNK2gc9Interface7Buffers5beginEv, 
                       __ZNK2gc9Interface7BuffersixERKNSt3__112basic_stringIcNS2_11char_traitsIcEENS2_9allocatorIcEEEE, 
                       __ZNK2gc9Signposts6Logger9isEnabledEv, __ZNK2gc9float16_t11is_infinityEv, 
                       __ZNK2gc9float16_t11is_negativeEv, __ZNK2gc9float16_t6is_nanEv, 
                       __ZNK2gc9float16_t7is_zeroEv, __ZNK2gc9float16_t7to_bitsEv, 
                       __ZNK2gc9float16_tcvdEv, __ZNK2gc9float16_tcvfEv, __ZNK2gc9float16_tdvES0_, 
                       __ZNK2gc9float16_teqES0_, __ZNK2gc9float16_tgtES0_, __ZNK2gc9float16_tltES0_, 
                       __ZNK2gc9float16_tmiES0_, __ZNK2gc9float16_tmlES0_, __ZNK2gc9float16_tngEv, 
                       __ZNK2gc9float16_tplES0_, __ZSt3absN2gc9float16_tE, __ZTIN2gc11TypedIRStmtILNS_9eStmtTypeE1EEE, 
                       __ZTIN2gc11TypedIRStmtILNS_9eStmtTypeE2EEE, __ZTIN2gc11TypedIRStmtILNS_9eStmtTypeE3EEE, 
                       __ZTIN2gc11TypedIRStmtILNS_9eStmtTypeE4EEE, __ZTIN2gc11TypedIRStmtILNS_9eStmtTypeE5EEE, 
                       __ZTIN2gc11TypedIRStmtILNS_9eStmtTypeE6EEE, __ZTIN2gc11TypedIRStmtILNS_9eStmtTypeE7EEE, 
                       __ZTIN2gc11TypedIRStmtILNS_9eStmtTypeE8EEE, __ZTIN2gc11TypedObjectILNS_11eObjectTypeE1EEE, 
                       __ZTIN2gc12BufferHandleE, __ZTIN2gc14EqualInvariantE, __ZTIN2gc14SIMDGroupBlockE, 
                       __ZTIN2gc15ScalarInvariantE, __ZTIN2gc15StreamIndentBufE, 
                       __ZTIN2gc16BufferHandleViewE, __ZTIN2gc16GeneratorFactoryE, 
                       __ZTIN2gc18EqualTypeInvariantE, __ZTIN2gc18ExactTypeInvariantE, 
                       __ZTIN2gc18IncreasingRangeMapE, __ZTIN2gc18MatrixProductBlockE, 
                       __ZTIN2gc19EqualBlockInvariantE, __ZTIN2gc19ExactBlockInvariantE, 
                       __ZTIN2gc20MatrixProductElementE, __ZTIN2gc21EqualExtentsInvariantE, 
                       __ZTIN2gc21StridedBlockInvariantE, __ZTIN2gc22EqualElementsInvariantE, 
                       __ZTIN2gc22ExactElementsInvariantE, __ZTIN2gc23GenericBindableArgumentE, 
                       __ZTIN2gc24FunctionOfBlockInvariantE, __ZTIN2gc24ScalarwiseBlockInvariantE, 
                       __ZTIN2gc3est10EvaluateHpE, __ZTIN2gc3est10EvaluateJpE, __ZTIN2gc3est11EvaluateJtJE, 
                       __ZTIN2gc3est11EvaluateJteE, __ZTIN2gc3est11FactorGraphE, 
                       __ZTIN2gc3est11PCGIterate1E, __ZTIN2gc3est11PCGIterate2E, 
                       __ZTIN2gc3est11TypedFactorILNS0_11eFactorTypeE1EEE, __ZTIN2gc3est12EvaluateJtJpE, 
                       __ZTIN2gc3est12EvaluateJteME, __ZTIN2gc3est12InvertBlockME, 
                       __ZTIN2gc3est13VariableGroupE, __ZTIN2gc3est14EvaluateBlockME, 
                       __ZTIN2gc3est14ExtractDiagJtJE, __ZTIN2gc3est14SchurLinearizeE, 
                       __ZTIN2gc3est15DenseLDLTSolverE, __ZTIN2gc3est15FactorGradientsE, 
                       __ZTIN2gc3est15FactorJacobiansE, __ZTIN2gc3est16DenseBlockMatrixE, 
                       __ZTIN2gc3est16SparseLDLTSolverE, __ZTIN2gc3est17SymmetrizeDiagJtJE, 
                       __ZTIN2gc3est18ImplicitSchurJtJp1E, __ZTIN2gc3est18ImplicitSchurJtJp2E, 
                       __ZTIN2gc3est18LinearizationPointE, __ZTIN2gc3est19BasicFactorOrderingE, 
                       __ZTIN2gc3est19SchurBackSubstituteE, __ZTIN2gc3est20BitmappedBlockMatrixE, 
                       __ZTIN2gc3est20FactorInformationMapE, __ZTIN2gc3est20TrustRegionMinimizerE, 
                       __ZTIN2gc3est22EvaluateBatchGradientsE, __ZTIN2gc3est22IsotropicGaussianNoiseE, 
                       __ZTIN2gc3est22ModelErrorCostFunctionE, __ZTIN2gc3est22VariadicFactorOrderingE, 
                       __ZTIN2gc3est24AnisotropicGaussianNoiseE, __ZTIN2gc3est24CompressedRowBlockMatrixE, 
                       __ZTIN2gc3est24GradientDescentMinimizerE, __ZTIN2gc3est24ImplicitSchurInitialize1E, 
                       __ZTIN2gc3est24ImplicitSchurInitialize2E, __ZTIN2gc3est24ImplicitSchurInitialize3E, 
                       __ZTIN2gc3est24LeastSquaresCostFunctionE, __ZTIN2gc3est25ApplyJacobiPreconditionerE, 
                       __ZTIN2gc3est28ImplicitSchurBackSubstitute1E, __ZTIN2gc3est28ImplicitSchurBackSubstitute2E, 
                       __ZTIN2gc3est30ApplyAdditiveLMDampingExplicitE, __ZTIN2gc3est30ApplyAdditiveLMDampingImplicitE, 
                       __ZTIN2gc3est30ApplyBlockJacobiPreconditionerE, __ZTIN2gc3est32BatchGradientsLinearizationPointE, 
                       __ZTIN2gc3est33ApplyAdditiveLMDampingToDiagonalsE, __ZTIN2gc3est33ExplicitHessianLinearizationPointE, 
                       __ZTIN2gc3est33ImplicitHessianLinearizationPointE, __ZTIN2gc3est36ApplyMultiplicativeLMDampingExplicitE, 
                       __ZTIN2gc3est36ApplyMultiplicativeLMDampingImplicitE, __ZTIN2gc3est39ApplyMultiplicativeLMDampingToDiagonalsE, 
                       __ZTIN2gc3est3SE3E, __ZTIN2gc3est3SO3E, __ZTIN2gc3est4AdamE, 
                       __ZTIN2gc3est51ExplicitHessianLinearizationPointLevenbergMarquardtE, 
                       __ZTIN2gc3est51ImplicitHessianLinearizationPointLevenbergMarquardtE, 
                       __ZTIN2gc3est53ExplicitHessianLinearizationPointJacobiPreconditionerE, 
                       __ZTIN2gc3est53ImplicitHessianLinearizationPointJacobiPreconditionerE, 
                       __ZTIN2gc3est58ExplicitHessianLinearizationPointBlockJacobiPreconditionerE, 
                       __ZTIN2gc3est58ImplicitHessianLinearizationPointBlockJacobiPreconditionerE, 
                       __ZTIN2gc3est6FactorE, __ZTIN2gc3est6ScalarE, __ZTIN2gc3est6VectorE, 
                       __ZTIN2gc3est7InvertME, __ZTIN2gc3est7ProblemE, __ZTIN2gc3est8VariableE, 
                       __ZTIN2gc3est9FactorMapE, __ZTIN2gc3ops10AutoDiffOpE, __ZTIN2gc3ops2OpE, 
                       __ZTIN2gc3ops6MatMulE, __ZTIN2gc4lang13TypedVariableILNS0_13eVariableTypeE0EEE, 
                       __ZTIN2gc4lang13TypedVariableILNS0_13eVariableTypeE1EEE, __ZTIN2gc4lang3est11JacobianSet26MatrixFreeJacobianInstanceE, 
                       __ZTIN2gc4lang3est16DenseBlockMatrixE, __ZTIN2gc4lang3est18MatrixFreeJacobianE, 
                       __ZTIN2gc4lang3est19BasicFactorOrderingE, __ZTIN2gc4lang3est20BitmappedBlockMatrixE, 
                       __ZTIN2gc4lang3est22VariadicFactorOrderingE, __ZTIN2gc4lang3est24CompressedRowBlockMatrixE, 
                       __ZTIN2gc4lang6MatrixE, __ZTIN2gc4lang6ScalarE, __ZTIN2gc5RangeE, 
                       __ZTIN2gc6BufferE, __ZTIN2gc9GeneratorE, __ZTIN2gc9InterfaceE, 
                       __ZTSN2gc11TypedIRStmtILNS_9eStmtTypeE1EEE, __ZTSN2gc11TypedIRStmtILNS_9eStmtTypeE2EEE, 
                       __ZTSN2gc11TypedIRStmtILNS_9eStmtTypeE3EEE, __ZTSN2gc11TypedIRStmtILNS_9eStmtTypeE4EEE, 
                       __ZTSN2gc11TypedIRStmtILNS_9eStmtTypeE5EEE, __ZTSN2gc11TypedIRStmtILNS_9eStmtTypeE6EEE, 
                       __ZTSN2gc11TypedIRStmtILNS_9eStmtTypeE7EEE, __ZTSN2gc11TypedIRStmtILNS_9eStmtTypeE8EEE, 
                       __ZTSN2gc11TypedObjectILNS_11eObjectTypeE1EEE, __ZTSN2gc12BufferHandleE, 
                       __ZTSN2gc14EqualInvariantE, __ZTSN2gc14SIMDGroupBlockE, __ZTSN2gc15ScalarInvariantE, 
                       __ZTSN2gc15StreamIndentBufE, __ZTSN2gc16BufferHandleViewE, 
                       __ZTSN2gc16GeneratorFactoryE, __ZTSN2gc18EqualTypeInvariantE, 
                       __ZTSN2gc18ExactTypeInvariantE, __ZTSN2gc18IncreasingRangeMapE, 
                       __ZTSN2gc18MatrixProductBlockE, __ZTSN2gc19EqualBlockInvariantE, 
                       __ZTSN2gc19ExactBlockInvariantE, __ZTSN2gc20MatrixProductElementE, 
                       __ZTSN2gc21EqualExtentsInvariantE, __ZTSN2gc21StridedBlockInvariantE, 
                       __ZTSN2gc22EqualElementsInvariantE, __ZTSN2gc22ExactElementsInvariantE, 
                       __ZTSN2gc23GenericBindableArgumentE, __ZTSN2gc24FunctionOfBlockInvariantE, 
                       __ZTSN2gc24ScalarwiseBlockInvariantE, __ZTSN2gc3est10EvaluateHpE, 
                       __ZTSN2gc3est10EvaluateJpE, __ZTSN2gc3est11EvaluateJtJE, __ZTSN2gc3est11EvaluateJteE, 
                       __ZTSN2gc3est11FactorGraphE, __ZTSN2gc3est11PCGIterate1E, 
                       __ZTSN2gc3est11PCGIterate2E, __ZTSN2gc3est11TypedFactorILNS0_11eFactorTypeE1EEE, 
                       __ZTSN2gc3est12EvaluateJtJpE, __ZTSN2gc3est12EvaluateJteME, 
                       __ZTSN2gc3est12InvertBlockME, __ZTSN2gc3est13VariableGroupE, 
                       __ZTSN2gc3est14EvaluateBlockME, __ZTSN2gc3est14ExtractDiagJtJE, 
                       __ZTSN2gc3est14SchurLinearizeE, __ZTSN2gc3est15DenseLDLTSolverE, 
                       __ZTSN2gc3est15FactorGradientsE, __ZTSN2gc3est15FactorJacobiansE, 
                       __ZTSN2gc3est16DenseBlockMatrixE, __ZTSN2gc3est16SparseLDLTSolverE, 
                       __ZTSN2gc3est17SymmetrizeDiagJtJE, __ZTSN2gc3est18ImplicitSchurJtJp1E, 
                       __ZTSN2gc3est18ImplicitSchurJtJp2E, __ZTSN2gc3est18LinearizationPointE, 
                       __ZTSN2gc3est19BasicFactorOrderingE, __ZTSN2gc3est19SchurBackSubstituteE, 
                       __ZTSN2gc3est20BitmappedBlockMatrixE, __ZTSN2gc3est20FactorInformationMapE, 
                       __ZTSN2gc3est20TrustRegionMinimizerE, __ZTSN2gc3est22EvaluateBatchGradientsE, 
                       __ZTSN2gc3est22IsotropicGaussianNoiseE, __ZTSN2gc3est22ModelErrorCostFunctionE, 
                       __ZTSN2gc3est22VariadicFactorOrderingE, __ZTSN2gc3est24AnisotropicGaussianNoiseE, 
                       __ZTSN2gc3est24CompressedRowBlockMatrixE, __ZTSN2gc3est24GradientDescentMinimizerE, 
                       __ZTSN2gc3est24ImplicitSchurInitialize1E, __ZTSN2gc3est24ImplicitSchurInitialize2E, 
                       __ZTSN2gc3est24ImplicitSchurInitialize3E, __ZTSN2gc3est24LeastSquaresCostFunctionE, 
                       __ZTSN2gc3est25ApplyJacobiPreconditionerE, __ZTSN2gc3est28ImplicitSchurBackSubstitute1E, 
                       __ZTSN2gc3est28ImplicitSchurBackSubstitute2E, __ZTSN2gc3est30ApplyAdditiveLMDampingExplicitE, 
                       __ZTSN2gc3est30ApplyAdditiveLMDampingImplicitE, __ZTSN2gc3est30ApplyBlockJacobiPreconditionerE, 
                       __ZTSN2gc3est32BatchGradientsLinearizationPointE, __ZTSN2gc3est33ApplyAdditiveLMDampingToDiagonalsE, 
                       __ZTSN2gc3est33ExplicitHessianLinearizationPointE, __ZTSN2gc3est33ImplicitHessianLinearizationPointE, 
                       __ZTSN2gc3est36ApplyMultiplicativeLMDampingExplicitE, __ZTSN2gc3est36ApplyMultiplicativeLMDampingImplicitE, 
                       __ZTSN2gc3est39ApplyMultiplicativeLMDampingToDiagonalsE, __ZTSN2gc3est3SE3E, 
                       __ZTSN2gc3est3SO3E, __ZTSN2gc3est4AdamE, __ZTSN2gc3est51ExplicitHessianLinearizationPointLevenbergMarquardtE, 
                       __ZTSN2gc3est51ImplicitHessianLinearizationPointLevenbergMarquardtE, 
                       __ZTSN2gc3est53ExplicitHessianLinearizationPointJacobiPreconditionerE, 
                       __ZTSN2gc3est53ImplicitHessianLinearizationPointJacobiPreconditionerE, 
                       __ZTSN2gc3est58ExplicitHessianLinearizationPointBlockJacobiPreconditionerE, 
                       __ZTSN2gc3est58ImplicitHessianLinearizationPointBlockJacobiPreconditionerE, 
                       __ZTSN2gc3est6FactorE, __ZTSN2gc3est6ScalarE, __ZTSN2gc3est6VectorE, 
                       __ZTSN2gc3est7InvertME, __ZTSN2gc3est7ProblemE, __ZTSN2gc3est8VariableE, 
                       __ZTSN2gc3est9FactorMapE, __ZTSN2gc3ops10AutoDiffOpE, __ZTSN2gc3ops2OpE, 
                       __ZTSN2gc3ops6MatMulE, __ZTSN2gc4lang13TypedVariableILNS0_13eVariableTypeE0EEE, 
                       __ZTSN2gc4lang13TypedVariableILNS0_13eVariableTypeE1EEE, __ZTSN2gc4lang3est11JacobianSet26MatrixFreeJacobianInstanceE, 
                       __ZTSN2gc4lang3est16DenseBlockMatrixE, __ZTSN2gc4lang3est18MatrixFreeJacobianE, 
                       __ZTSN2gc4lang3est19BasicFactorOrderingE, __ZTSN2gc4lang3est20BitmappedBlockMatrixE, 
                       __ZTSN2gc4lang3est22VariadicFactorOrderingE, __ZTSN2gc4lang3est24CompressedRowBlockMatrixE, 
                       __ZTSN2gc4lang6MatrixE, __ZTSN2gc4lang6ScalarE, __ZTSN2gc5RangeE, 
                       __ZTSN2gc6BufferE, __ZTSN2gc9GeneratorE, __ZTSN2gc9InterfaceE, 
                       __ZTVN2gc11TypedIRStmtILNS_9eStmtTypeE1EEE, __ZTVN2gc11TypedIRStmtILNS_9eStmtTypeE2EEE, 
                       __ZTVN2gc11TypedIRStmtILNS_9eStmtTypeE3EEE, __ZTVN2gc11TypedIRStmtILNS_9eStmtTypeE4EEE, 
                       __ZTVN2gc11TypedIRStmtILNS_9eStmtTypeE5EEE, __ZTVN2gc11TypedIRStmtILNS_9eStmtTypeE6EEE, 
                       __ZTVN2gc11TypedIRStmtILNS_9eStmtTypeE7EEE, __ZTVN2gc11TypedIRStmtILNS_9eStmtTypeE8EEE, 
                       __ZTVN2gc11TypedObjectILNS_11eObjectTypeE1EEE, __ZTVN2gc12BufferHandleE, 
                       __ZTVN2gc14EqualInvariantE, __ZTVN2gc14SIMDGroupBlockE, __ZTVN2gc15ScalarInvariantE, 
                       __ZTVN2gc15StreamIndentBufE, __ZTVN2gc16BufferHandleViewE, 
                       __ZTVN2gc16GeneratorFactoryE, __ZTVN2gc18EqualTypeInvariantE, 
                       __ZTVN2gc18ExactTypeInvariantE, __ZTVN2gc18IncreasingRangeMapE, 
                       __ZTVN2gc18MatrixProductBlockE, __ZTVN2gc19EqualBlockInvariantE, 
                       __ZTVN2gc19ExactBlockInvariantE, __ZTVN2gc20MatrixProductElementE, 
                       __ZTVN2gc21EqualExtentsInvariantE, __ZTVN2gc21StridedBlockInvariantE, 
                       __ZTVN2gc22EqualElementsInvariantE, __ZTVN2gc22ExactElementsInvariantE, 
                       __ZTVN2gc23GenericBindableArgumentE, __ZTVN2gc24FunctionOfBlockInvariantE, 
                       __ZTVN2gc24ScalarwiseBlockInvariantE, __ZTVN2gc3est10EvaluateHpE, 
                       __ZTVN2gc3est10EvaluateJpE, __ZTVN2gc3est11EvaluateJtJE, __ZTVN2gc3est11EvaluateJteE, 
                       __ZTVN2gc3est11FactorGraphE, __ZTVN2gc3est11PCGIterate1E, 
                       __ZTVN2gc3est11PCGIterate2E, __ZTVN2gc3est11TypedFactorILNS0_11eFactorTypeE1EEE, 
                       __ZTVN2gc3est12EvaluateJtJpE, __ZTVN2gc3est12EvaluateJteME, 
                       __ZTVN2gc3est12InvertBlockME, __ZTVN2gc3est13VariableGroupE, 
                       __ZTVN2gc3est14EvaluateBlockME, __ZTVN2gc3est14ExtractDiagJtJE, 
                       __ZTVN2gc3est14SchurLinearizeE, __ZTVN2gc3est15DenseLDLTSolverE, 
                       __ZTVN2gc3est15FactorGradientsE, __ZTVN2gc3est15FactorJacobiansE, 
                       __ZTVN2gc3est16DenseBlockMatrixE, __ZTVN2gc3est16SparseLDLTSolverE, 
                       __ZTVN2gc3est17SymmetrizeDiagJtJE, __ZTVN2gc3est18ImplicitSchurJtJp1E, 
                       __ZTVN2gc3est18ImplicitSchurJtJp2E, __ZTVN2gc3est18LinearizationPointE, 
                       __ZTVN2gc3est19BasicFactorOrderingE, __ZTVN2gc3est19SchurBackSubstituteE, 
                       __ZTVN2gc3est20BitmappedBlockMatrixE, __ZTVN2gc3est20FactorInformationMapE, 
                       __ZTVN2gc3est20TrustRegionMinimizerE, __ZTVN2gc3est22EvaluateBatchGradientsE, 
                       __ZTVN2gc3est22IsotropicGaussianNoiseE, __ZTVN2gc3est22ModelErrorCostFunctionE, 
                       __ZTVN2gc3est22VariadicFactorOrderingE, __ZTVN2gc3est24AnisotropicGaussianNoiseE, 
                       __ZTVN2gc3est24CompressedRowBlockMatrixE, __ZTVN2gc3est24GradientDescentMinimizerE, 
                       __ZTVN2gc3est24ImplicitSchurInitialize1E, __ZTVN2gc3est24ImplicitSchurInitialize2E, 
                       __ZTVN2gc3est24ImplicitSchurInitialize3E, __ZTVN2gc3est24LeastSquaresCostFunctionE, 
                       __ZTVN2gc3est25ApplyJacobiPreconditionerE, __ZTVN2gc3est28ImplicitSchurBackSubstitute1E, 
                       __ZTVN2gc3est28ImplicitSchurBackSubstitute2E, __ZTVN2gc3est30ApplyAdditiveLMDampingExplicitE, 
                       __ZTVN2gc3est30ApplyAdditiveLMDampingImplicitE, __ZTVN2gc3est30ApplyBlockJacobiPreconditionerE, 
                       __ZTVN2gc3est32BatchGradientsLinearizationPointE, __ZTVN2gc3est33ApplyAdditiveLMDampingToDiagonalsE, 
                       __ZTVN2gc3est33ExplicitHessianLinearizationPointE, __ZTVN2gc3est33ImplicitHessianLinearizationPointE, 
                       __ZTVN2gc3est36ApplyMultiplicativeLMDampingExplicitE, __ZTVN2gc3est36ApplyMultiplicativeLMDampingImplicitE, 
                       __ZTVN2gc3est39ApplyMultiplicativeLMDampingToDiagonalsE, __ZTVN2gc3est3SE3E, 
                       __ZTVN2gc3est3SO3E, __ZTVN2gc3est4AdamE, __ZTVN2gc3est51ExplicitHessianLinearizationPointLevenbergMarquardtE, 
                       __ZTVN2gc3est51ImplicitHessianLinearizationPointLevenbergMarquardtE, 
                       __ZTVN2gc3est53ExplicitHessianLinearizationPointJacobiPreconditionerE, 
                       __ZTVN2gc3est53ImplicitHessianLinearizationPointJacobiPreconditionerE, 
                       __ZTVN2gc3est58ExplicitHessianLinearizationPointBlockJacobiPreconditionerE, 
                       __ZTVN2gc3est58ImplicitHessianLinearizationPointBlockJacobiPreconditionerE, 
                       __ZTVN2gc3est6FactorE, __ZTVN2gc3est6ScalarE, __ZTVN2gc3est6VectorE, 
                       __ZTVN2gc3est7InvertME, __ZTVN2gc3est7ProblemE, __ZTVN2gc3est8VariableE, 
                       __ZTVN2gc3est9FactorMapE, __ZTVN2gc3ops10AutoDiffOpE, __ZTVN2gc3ops2OpE, 
                       __ZTVN2gc3ops6MatMulE, __ZTVN2gc4lang13TypedVariableILNS0_13eVariableTypeE0EEE, 
                       __ZTVN2gc4lang13TypedVariableILNS0_13eVariableTypeE1EEE, __ZTVN2gc4lang3est11JacobianSet26MatrixFreeJacobianInstanceE, 
                       __ZTVN2gc4lang3est16DenseBlockMatrixE, __ZTVN2gc4lang3est18MatrixFreeJacobianE, 
                       __ZTVN2gc4lang3est19BasicFactorOrderingE, __ZTVN2gc4lang3est20BitmappedBlockMatrixE, 
                       __ZTVN2gc4lang3est22VariadicFactorOrderingE, __ZTVN2gc4lang3est24CompressedRowBlockMatrixE, 
                       __ZTVN2gc4lang6MatrixE, __ZTVN2gc4lang6ScalarE, __ZTVN2gc5RangeE, 
                       __ZTVN2gc6BufferE, __ZTVN2gc9GeneratorE, __ZTVN2gc9InterfaceE, 
                       __ZThn24_N2gc4lang6MatrixD0Ev, __ZThn24_N2gc4lang6MatrixD1Ev, 
                       __ZThn24_N2gc4lang6ScalarD0Ev, __ZThn24_N2gc4lang6ScalarD1Ev, 
                       __ZeqRK17loopkit_rt_type_tS1_, __ZlsRNSt3__113basic_ostreamIcNS_11char_traitsIcEEEERK17loopkit_rt_type_t, 
                       __ZltRK17loopkit_rt_type_tS1_, __ZneRK17loopkit_rt_type_tS1_ ]
    weak-symbols:    [ __ZN6Halide7Runtime8Internal10CacheEntry4initEPKhmjPK15halide_buffer_tiPPS5_, 
                       __ZN6Halide7Runtime8Internal10CacheEntry7destroyEv, __ZN6Halide7Runtime8Internal10keys_equalEPKhS3_m, 
                       __ZN6Halide7Runtime8Internal10work_queueE, __ZN6Halide7Runtime8Internal11copy_memoryERKNS1_11device_copyEPv, 
                       __ZN6Halide7Runtime8Internal11custom_freeE, __ZN6Halide7Runtime8Internal11prune_cacheEv, 
                       __ZN6Halide7Runtime8Internal12custom_printE, __ZN6Halide7Runtime8Internal13cache_entriesE, 
                       __ZN6Halide7Runtime8Internal13custom_mallocE, __ZN6Halide7Runtime8Internal13error_handlerE, 
                       __ZN6Halide7Runtime8Internal13ns_log_objectEPv, __ZN6Halide7Runtime8Internal13worker_threadEPv, 
                       __ZN6Halide7Runtime8Internal14custom_do_taskE, __ZN6Halide7Runtime8Internal14max_cache_sizeE, 
                       __ZN6Halide7Runtime8Internal15Synchronization10unpark_oneEyRNS2_15parking_controlE, 
                       __ZN6Halide7Runtime8Internal15Synchronization11lock_bucketEy, 
                       __ZN6Halide7Runtime8Internal15Synchronization13table_storageE, 
                       __ZN6Halide7Runtime8Internal15Synchronization14unpark_requeueEyyRNS2_15parking_controlEy, 
                       __ZN6Halide7Runtime8Internal15Synchronization16lock_bucket_pairEyy, 
                       __ZN6Halide7Runtime8Internal15Synchronization18unlock_bucket_pairERNS2_11bucket_pairE, 
                       __ZN6Halide7Runtime8Internal15Synchronization22parking_control_unparkEPvib, 
                       __ZN6Halide7Runtime8Internal15Synchronization24parking_control_validateEPvRNS2_15validate_actionE, 
                       __ZN6Halide7Runtime8Internal15Synchronization27wait_parking_control_unparkEPvib, 
                       __ZN6Halide7Runtime8Internal15Synchronization28mutex_parking_control_unparkEPvib, 
                       __ZN6Halide7Runtime8Internal15Synchronization28parking_control_before_sleepEPv, 
                       __ZN6Halide7Runtime8Internal15Synchronization29signal_parking_control_unparkEPvib, 
                       __ZN6Halide7Runtime8Internal15Synchronization29wait_parking_control_validateEPvRNS2_15validate_actionE, 
                       __ZN6Halide7Runtime8Internal15Synchronization30mutex_parking_control_validateEPvRNS2_15validate_actionE, 
                       __ZN6Halide7Runtime8Internal15Synchronization32parking_control_requeue_callbackEPvRKNS2_15validate_actionEbb, 
                       __ZN6Halide7Runtime8Internal15Synchronization33wait_parking_control_before_sleepEPv, 
                       __ZN6Halide7Runtime8Internal15Synchronization34broadcast_parking_control_validateEPvRNS2_15validate_actionE, 
                       __ZN6Halide7Runtime8Internal15Synchronization42broadcast_parking_control_requeue_callbackEPvRKNS2_15validate_actionEbb, 
                       __ZN6Halide7Runtime8Internal15Synchronization4parkEyRNS2_15parking_controlE, 
                       __ZN6Halide7Runtime8Internal15Synchronization9word_lock11unlock_fullEv, 
                       __ZN6Halide7Runtime8Internal15Synchronization9word_lock9lock_fullEv, 
                       __ZN6Halide7Runtime8Internal16buffer_has_shapeEPK15halide_buffer_tPK18halide_dimension_t, 
                       __ZN6Halide7Runtime8Internal16make_buffer_copyEPK15halide_buffer_tbS4_b, 
                       __ZN6Halide7Runtime8Internal16memoization_lockE, __ZN6Halide7Runtime8Internal16retain_ns_objectEPv, 
                       __ZN6Halide7Runtime8Internal17clamp_num_threadsEi, __ZN6Halide7Runtime8Internal17custom_do_par_forE, 
                       __ZN6Halide7Runtime8Internal17custom_get_symbolE, __ZN6Halide7Runtime8Internal17device_copy_mutexE, 
                       __ZN6Halide7Runtime8Internal17halide_gpu_deviceE, __ZN6Halide7Runtime8Internal17halide_trace_fileE, 
                       __ZN6Halide7Runtime8Internal17release_ns_objectEPv, __ZN6Halide7Runtime8Internal18copy_memory_helperERKNS1_11device_copyEixx, 
                       __ZN6Halide7Runtime8Internal18current_cache_sizeE, __ZN6Halide7Runtime8Internal18most_recently_usedE, 
                       __ZN6Halide7Runtime8Internal19custom_do_loop_taskE, __ZN6Halide7Runtime8Internal19custom_load_libraryE, 
                       __ZN6Halide7Runtime8Internal19custom_named_mallocE, __ZN6Halide7Runtime8Internal19halide_custom_traceE, 
                       __ZN6Halide7Runtime8Internal19halide_thread_yieldEv, __ZN6Halide7Runtime8Internal19halide_trace_bufferE, 
                       __ZN6Halide7Runtime8Internal19least_recently_usedE, __ZN6Halide7Runtime8Internal19spawn_thread_helperEPv, 
                       __ZN6Halide7Runtime8Internal20halide_timebase_infoE, __ZN6Halide7Runtime8Internal21custom_semaphore_initE, 
                       __ZN6Halide7Runtime8Internal21get_pointer_to_headerEPh, __ZN6Halide7Runtime8Internal21halide_use_jit_moduleEv, 
                       __ZN6Halide7Runtime8Internal22drain_autorelease_poolEPv, __ZN6Halide7Runtime8Internal22halide_gpu_device_lockE, 
                       __ZN6Halide7Runtime8Internal22halide_reference_clockE, __ZN6Halide7Runtime8Internal22halide_trace_file_lockE, 
                       __ZN6Halide7Runtime8Internal23create_autorelease_poolEv, __ZN6Halide7Runtime8Internal23find_or_create_pipelineEPKciPKyS5_, 
                       __ZN6Halide7Runtime8Internal23halide_get_cpu_featuresEv, __ZN6Halide7Runtime8Internal24custom_do_parallel_tasksE, 
                       __ZN6Halide7Runtime8Internal24custom_semaphore_releaseE, __ZN6Halide7Runtime8Internal24make_device_to_host_copyEPK15halide_buffer_t, 
                       __ZN6Halide7Runtime8Internal24make_host_to_device_copyEPK15halide_buffer_t, 
                       __ZN6Halide7Runtime8Internal24sampling_profiler_threadEPv, 
                       __ZN6Halide7Runtime8Internal24wrap_string_as_ns_stringEPKcm, 
                       __ZN6Halide7Runtime8Internal25custom_get_library_symbolE, 
                       __ZN6Halide7Runtime8Internal25halide_release_jit_moduleEv, 
                       __ZN6Halide7Runtime8Internal27copy_to_host_already_lockedEPvP15halide_buffer_t, 
                       __ZN6Halide7Runtime8Internal27default_desired_num_threadsEv, 
                       __ZN6Halide7Runtime8Internal27enqueue_work_already_lockedEiPNS1_4workES3_, 
                       __ZN6Halide7Runtime8Internal28custom_semaphore_try_acquireE, 
                       __ZN6Halide7Runtime8Internal28worker_thread_already_lockedEPNS1_4workE, 
                       __ZN6Halide7Runtime8Internal29guess_type_and_dimensionalityEPvP8buffer_tP15halide_buffer_t, 
                       __ZN6Halide7Runtime8Internal29halide_gpu_device_initializedE, 
                       __ZN6Halide7Runtime8Internal29halide_reference_clock_initedE, 
                       __ZN6Halide7Runtime8Internal29halide_trace_file_initializedE, 
                       __ZN6Halide7Runtime8Internal30custom_can_use_target_featuresE, 
                       __ZN6Halide7Runtime8Internal30pixel_type_to_matlab_type_codeE, 
                       __ZN6Halide7Runtime8Internal30pixel_type_to_tiff_sample_typeE, 
                       __ZN6Halide7Runtime8Internal31pixel_type_to_matlab_class_codeE, 
                       __ZN6Halide7Runtime8Internal35halide_trace_file_internally_openedE, 
                       __ZN6Halide7Runtime8Internal5Metal10new_bufferEP19halide_metal_devicem, 
                       __ZN6Halide7Runtime8Internal5Metal10state_listE, __ZN6Halide7Runtime8Internal5Metal11thread_lockE, 
                       __ZN6Halide7Runtime8Internal5Metal12end_encodingEPNS2_24mtl_blit_command_encoderE, 
                       __ZN6Halide7Runtime8Internal5Metal12end_encodingEPNS2_27mtl_compute_command_encoderE, 
                       __ZN6Halide7Runtime8Internal5Metal14release_bufferEPNS2_10mtl_bufferE, 
                       __ZN6Halide7Runtime8Internal5Metal15buffer_contentsEPNS2_10mtl_bufferE, 
                       __ZN6Halide7Runtime8Internal5Metal16did_modify_rangeEPNS2_10mtl_bufferENS2_7NSRangeE, 
                       __ZN6Halide7Runtime8Internal5Metal16set_input_bufferEPNS2_27mtl_compute_command_encoderEPNS2_10mtl_bufferEyj, 
                       __ZN6Halide7Runtime8Internal5Metal17is_buffer_managedEPNS2_10mtl_bufferE, 
                       __ZN6Halide7Runtime8Internal5Metal17new_command_queueEP19halide_metal_device, 
                       __ZN6Halide7Runtime8Internal5Metal18MetalContextHolder4saveEPvb, 
                       __ZN6Halide7Runtime8Internal5Metal18MetalContextHolder7restoreEv, 
                       __ZN6Halide7Runtime8Internal5Metal18new_command_bufferEP26halide_metal_command_queue, 
                       __ZN6Halide7Runtime8Internal5Metal18new_no_copy_bufferEP19halide_metal_devicemy, 
                       __ZN6Halide7Runtime8Internal5Metal20command_buffer_errorEPNS2_18mtl_command_bufferE, 
                       __ZN6Halide7Runtime8Internal5Metal20nsarray_first_objectEPv, 
                       __ZN6Halide7Runtime8Internal5Metal20synchronize_resourceEPNS2_24mtl_blit_command_encoderEPNS2_10mtl_bufferE, 
                       __ZN6Halide7Runtime8Internal5Metal20wait_until_completedEPNS2_18mtl_command_bufferE, 
                       __ZN6Halide7Runtime8Internal5Metal21commit_command_bufferEPNS2_18mtl_command_bufferE, 
                       __ZN6Halide7Runtime8Internal5Metal21dispatch_threadgroupsEPNS2_27mtl_compute_command_encoderEiiiiii, 
                       __ZN6Halide7Runtime8Internal5Metal22metal_device_interfaceE, 
                       __ZN6Halide7Runtime8Internal5Metal22new_function_with_nameEPNS2_11mtl_libraryEPKcm, 
                       __ZN6Halide7Runtime8Internal5Metal23new_library_with_sourceEP19halide_metal_devicePKcm, 
                       __ZN6Halide7Runtime8Internal5Metal24buffer_to_buffer_1d_copyEPNS2_24mtl_blit_command_encoderEPNS2_10mtl_bufferEmS6_mm, 
                       __ZN6Halide7Runtime8Internal5Metal24metal_api_checked_deviceE, 
                       __ZN6Halide7Runtime8Internal5Metal24new_blit_command_encoderEPNS2_18mtl_command_bufferE, 
                       __ZN6Halide7Runtime8Internal5Metal25buffer_supports_set_bytesEPNS2_27mtl_compute_command_encoderE, 
                       __ZN6Halide7Runtime8Internal5Metal25new_library_from_metallibEP19halide_metal_devicePKc, 
                       __ZN6Halide7Runtime8Internal5Metal26set_compute_pipeline_stateEPNS2_27mtl_compute_command_encoderEPNS2_26mtl_compute_pipeline_stateE, 
                       __ZN6Halide7Runtime8Internal5Metal27metal_device_interface_implE, 
                       __ZN6Halide7Runtime8Internal5Metal27new_compute_command_encoderEPNS2_18mtl_command_bufferE, 
                       __ZN6Halide7Runtime8Internal5Metal27set_input_buffer_from_bytesEPNS2_27mtl_compute_command_encoderEPhjj, 
                       __ZN6Halide7Runtime8Internal5Metal28metal_api_supports_set_bytesE, 
                       __ZN6Halide7Runtime8Internal5Metal29set_threadgroup_memory_lengthEPNS2_27mtl_compute_command_encoderEjj, 
                       __ZN6Halide7Runtime8Internal5Metal36add_command_buffer_completed_handlerEPNS2_18mtl_command_bufferEPNS2_46command_buffer_completed_handler_block_literalE, 
                       __ZN6Halide7Runtime8Internal5Metal38command_buffer_completed_handler_blockE, 
                       __ZN6Halide7Runtime8Internal5Metal39command_buffer_completed_handler_invokeEPNS2_46command_buffer_completed_handler_block_literalEPNS2_18mtl_command_bufferE, 
                       __ZN6Halide7Runtime8Internal5Metal40new_compute_pipeline_state_with_functionEP19halide_metal_devicePNS2_12mtl_functionE, 
                       __ZN6Halide7Runtime8Internal5Metal43command_buffer_completed_handler_descriptorE, 
                       __ZN6Halide7Runtime8Internal5Metal5queueE, __ZN6Halide7Runtime8Internal5Metal6deviceE, 
                       __ZN6Halide7Runtime8Internal8djb_hashEPKhm, __ZN6Halide7Runtime8Internal9bill_funcEP21halide_profiler_stateiyi, 
                       __ZN6Halide7Runtime8Internal9ends_withEPKcS3_, _copy_to_device_already_locked, 
                       _halide_buffer_copy, _halide_buffer_copy_already_locked, _halide_buffer_to_string, 
                       _halide_cache_cleanup, _halide_can_use_target_features, _halide_cond_broadcast, 
                       _halide_cond_signal, _halide_cond_wait, _halide_copy_to_device, 
                       _halide_copy_to_device_legacy, _halide_copy_to_host, _halide_copy_to_host_legacy, 
                       _halide_current_time_ns, _halide_debug_to_file, _halide_default_buffer_copy, 
                       _halide_default_can_use_target_features, _halide_default_device_and_host_free, 
                       _halide_default_device_and_host_malloc, _halide_default_device_crop, 
                       _halide_default_device_detach_native, _halide_default_device_release_crop, 
                       _halide_default_device_slice, _halide_default_device_wrap_native, 
                       _halide_default_do_loop_task, _halide_default_do_par_for, 
                       _halide_default_do_parallel_tasks, _halide_default_do_task, 
                       _halide_default_error, _halide_default_free, _halide_default_get_library_symbol, 
                       _halide_default_get_symbol, _halide_default_load_library, 
                       _halide_default_malloc, _halide_default_print, _halide_default_semaphore_init, 
                       _halide_default_semaphore_release, _halide_default_semaphore_try_acquire, 
                       _halide_default_trace, _halide_device_and_host_free, _halide_device_and_host_free_as_destructor, 
                       _halide_device_and_host_malloc, _halide_device_crop, _halide_device_detach_and_release_native, 
                       _halide_device_detach_native, _halide_device_free, _halide_device_free_as_destructor, 
                       _halide_device_free_legacy, _halide_device_host_nop_free, 
                       _halide_device_malloc, _halide_device_malloc_legacy, _halide_device_release, 
                       _halide_device_release_crop, _halide_device_slice, _halide_device_sync, 
                       _halide_device_sync_legacy, _halide_device_wrap_native, _halide_do_loop_task, 
                       _halide_do_par_for, _halide_do_parallel_tasks, _halide_do_task, 
                       _halide_double_to_string, _halide_downgrade_buffer_t, _halide_downgrade_buffer_t_device_fields, 
                       _halide_error, _halide_error_access_out_of_bounds, _halide_error_bad_dimensions, 
                       _halide_error_bad_extern_fold, _halide_error_bad_fold, _halide_error_bad_type, 
                       _halide_error_bounds_inference_call_failed, _halide_error_buffer_allocation_too_large, 
                       _halide_error_buffer_argument_is_null, _halide_error_buffer_extents_negative, 
                       _halide_error_buffer_extents_too_large, _halide_error_buffer_is_null, 
                       _halide_error_constraint_violated, _halide_error_constraints_make_required_region_smaller, 
                       _halide_error_debug_to_file_failed, _halide_error_device_interface_no_device, 
                       _halide_error_explicit_bounds_too_small, _halide_error_extern_stage_failed, 
                       _halide_error_failed_to_downgrade_buffer_t, _halide_error_failed_to_upgrade_buffer_t, 
                       _halide_error_fold_factor_too_small, _halide_error_host_and_device_dirty, 
                       _halide_error_host_is_null, _halide_error_integer_division_by_zero, 
                       _halide_error_no_device_interface, _halide_error_out_of_memory, 
                       _halide_error_param_too_large_f64, _halide_error_param_too_large_i64, 
                       _halide_error_param_too_large_u64, _halide_error_param_too_small_f64, 
                       _halide_error_param_too_small_i64, _halide_error_param_too_small_u64, 
                       _halide_error_requirement_failed, _halide_error_specialize_fail, 
                       _halide_error_unaligned_host_ptr, _halide_float16_bits_to_double, 
                       _halide_float16_bits_to_float, _halide_free, _halide_get_gpu_device, 
                       _halide_get_library_symbol, _halide_get_symbol, _halide_get_trace_file, 
                       _halide_host_cpu_count, _halide_int64_to_string, _halide_iterate, 
                       _halide_iterate_sb, _halide_join_thread, _halide_load_library, 
                       _halide_malloc, _halide_memoization_cache_cleanup, _halide_memoization_cache_lookup, 
                       _halide_memoization_cache_release, _halide_memoization_cache_set_size, 
                       _halide_memoization_cache_store, _halide_metal_acquire_context, 
                       _halide_metal_buffer_copy, _halide_metal_cleanup, _halide_metal_copy_to_device, 
                       _halide_metal_copy_to_host, _halide_metal_detach_and_release_buffer, 
                       _halide_metal_detach_buffer, _halide_metal_device_and_host_free, 
                       _halide_metal_device_and_host_malloc, _halide_metal_device_crop, 
                       _halide_metal_device_free, _halide_metal_device_interface, 
                       _halide_metal_device_malloc, _halide_metal_device_release, 
                       _halide_metal_device_release_crop, _halide_metal_device_slice, 
                       _halide_metal_device_sync, _halide_metal_get_buffer, _halide_metal_get_buffer_contents, 
                       _halide_metal_get_crop_offset, _halide_metal_initialize_kernels, 
                       _halide_metal_initialize_kernels_from_lib, _halide_metal_release_context, 
                       _halide_metal_run, _halide_metal_wrap_buffer, _halide_metal_wrap_vm_allocate, 
                       _halide_msan_annotate_buffer_is_initialized, _halide_msan_annotate_buffer_is_initialized_as_destructor, 
                       _halide_msan_annotate_memory_is_initialized, _halide_mutex_array_create, 
                       _halide_mutex_array_destroy, _halide_mutex_array_lock, _halide_mutex_array_unlock, 
                       _halide_mutex_lock, _halide_mutex_unlock, _halide_named_malloc, 
                       _halide_pointer_to_string, _halide_print, _halide_profiler_get_pipeline_state, 
                       _halide_profiler_get_state, _halide_profiler_loop, _halide_profiler_memory_allocate, 
                       _halide_profiler_memory_free, _halide_profiler_pipeline_end, 
                       _halide_profiler_pipeline_start, _halide_profiler_report, 
                       _halide_profiler_report_unlocked, _halide_profiler_reset, 
                       _halide_profiler_reset_unlocked, _halide_profiler_shutdown, 
                       _halide_profiler_stack_peak_update, _halide_runtime_init, 
                       _halide_semaphore_init, _halide_semaphore_release, _halide_semaphore_try_acquire, 
                       _halide_set_custom_can_use_target_features, _halide_set_custom_do_loop_task, 
                       _halide_set_custom_do_par_for, _halide_set_custom_do_task, 
                       _halide_set_custom_free, _halide_set_custom_get_library_symbol, 
                       _halide_set_custom_get_symbol, _halide_set_custom_load_library, 
                       _halide_set_custom_malloc, _halide_set_custom_named_malloc, 
                       _halide_set_custom_parallel_runtime, _halide_set_custom_print, 
                       _halide_set_custom_trace, _halide_set_error_handler, _halide_set_gpu_device, 
                       _halide_set_num_threads, _halide_set_trace_file, _halide_shutdown_thread_pool, 
                       _halide_shutdown_trace, _halide_sleep_ms, _halide_spawn_thread, 
                       _halide_start_clock, _halide_string_to_string, _halide_thread_pool_cleanup, 
                       _halide_thread_qos, _halide_trace, _halide_trace_cleanup, 
                       _halide_trace_helper, _halide_type_to_string, _halide_uint64_to_string, 
                       _halide_upgrade_buffer_t, _metal_device_crop_from_offset ]
  - targets:         [ arm64-macos, arm64e-macos ]
    symbols:         [ __ZN2gc6Logger15logInCategoryVAENS0_9eSeverityEPKcS3_Pc ]
...
